

Microchip MPLAB XC8 Assembler V2.31 build 20201012212115 
                                                                                               Sat Jan 09 01:54:36 2021

Microchip MPLAB XC8 C Compiler v2.31 (Free license) build 20201012212115 Og1 
     1                           	processor	18F46K42
     2                           	fnconf	rparam,??,?,0
     3                           	pagewidth 120
     4                           	opt	flic
     5                           	psect	idataCOMRAM,global,class=CODE,delta=1,noexec
     6                           	psect	smallconst,global,reloc=2,class=SMALLCONST,delta=1,noexec
     7                           	psect	cinit,global,reloc=2,class=CODE,delta=1
     8                           	psect	bssCOMRAM,global,class=COMRAM,space=1,delta=1,lowdata,noexec
     9                           	psect	dataCOMRAM,global,class=COMRAM,space=1,delta=1,lowdata,noexec
    10                           	psect	bssBANK0,global,class=BANK0,space=1,delta=1,lowdata,noexec
    11                           	psect	cstackCOMRAM,global,class=COMRAM,space=1,delta=1,lowdata,noexec
    12                           	psect	text0,global,reloc=2,class=CODE,delta=1
    13                           	psect	text1,global,reloc=2,class=CODE,delta=1
    14                           	psect	text2,global,reloc=2,class=CODE,delta=1
    15                           	psect	text3,global,reloc=2,class=CODE,delta=1
    16                           	psect	text4,global,reloc=2,class=CODE,delta=1
    17                           	psect	text5,global,reloc=2,class=CODE,delta=1
    18                           	psect	text6,global,reloc=2,class=CODE,delta=1
    19                           	psect	text7,global,reloc=2,class=CODE,delta=1,group=2
    20                           	psect	text8,global,reloc=2,class=CODE,delta=1,group=2
    21                           	psect	text9,global,reloc=2,class=CODE,delta=1,group=2
    22                           	psect	text10,global,reloc=2,class=CODE,delta=1,group=2
    23                           	psect	text11,global,reloc=2,class=CODE,delta=1
    24                           	psect	text12,global,reloc=2,class=CODE,delta=1
    25                           	psect	text13,global,reloc=2,class=CODE,delta=1
    26                           	psect	text14,global,reloc=2,class=CODE,delta=1
    27                           	psect	text15,global,reloc=2,class=CODE,delta=1
    28                           	psect	text16,global,reloc=2,class=CODE,delta=1
    29                           	psect	text17,global,reloc=2,class=CODE,delta=1
    30                           	psect	ivt0x8,global,reloc=2,class=CODE,delta=1,noexec,keep,optim=
    31                           	psect	intsave_regs,global,class=BIGRAM,space=1,delta=1,noexec
    32                           	psect	rparam,global,class=COMRAM,space=1,delta=1,noexec
    33                           	psect	idloc,global,abs,ovrld,class=IDLOC,space=5,delta=1,noexec
    34                           	psect	config,global,abs,ovrld,class=CONFIG,space=4,delta=1,noexec
    35  0000                     
    36                           ; Version 2.20
    37                           ; Generated 05/05/2020 GMT
    38                           ; 
    39                           ; Copyright © 2020, Microchip Technology Inc. and its subsidiaries ("Microchip")
    40                           ; All rights reserved.
    41                           ; 
    42                           ; This software is developed by Microchip Technology Inc. and its subsidiaries ("Microch
      +                          ip").
    43                           ; 
    44                           ; Redistribution and use in source and binary forms, with or without modification, are
    45                           ; permitted provided that the following conditions are met:
    46                           ; 
    47                           ;     1. Redistributions of source code must retain the above copyright notice, this lis
      +                          t of
    48                           ;        conditions and the following disclaimer.
    49                           ; 
    50                           ;     2. Redistributions in binary form must reproduce the above copyright notice, this 
      +                          list
    51                           ;        of conditions and the following disclaimer in the documentation and/or other
    52                           ;        materials provided with the distribution.
    53                           ; 
    54                           ;     3. Microchip's name may not be used to endorse or promote products derived from th
      +                          is
    55                           ;        software without specific prior written permission.
    56                           ; 
    57                           ; THIS SOFTWARE IS PROVIDED BY MICROCHIP "AS IS" AND ANY EXPRESS OR IMPLIED WARRANTIES,
    58                           ; INCLUDING, BUT NOT LIMITED TO, THE IMPLIED WARRANTIES OF MERCHANTABILITY AND FITNESS F
      +                          OR
    59                           ; PURPOSE ARE DISCLAIMED.  IN NO EVENT SHALL MICROCHIP BE LIABLE FOR ANY DIRECT, INDIREC
      +                          T,
    60                           ; INCIDENTAL, SPECIAL, EXEMPLARY, OR CONSEQUENTIAL DAMAGES (INCLUDING BUT NOT LIMITED TO
    61                           ; PROCUREMENT OF SUBSTITUTE GOODS OR SERVICES; LOSS OF USE, DATA OR PROFITS; OR BUSINESS
    62                           ; INTERRUPTION) HOWSOEVER CAUSED AND ON ANY THEORY OF LIABILITY, WHETHER IN CONTRACT, ST
      +                          RICT
    63                           ; LIABILITY, OR TORT (INCLUDING NEGLIGENCE OR OTHERWISE) ARISING IN ANY WAY OUT OF THE U
      +                          SE OF
    64                           ; THIS SOFTWARE, EVEN IF ADVISED OF THE POSSIBILITY OF SUCH DAMAGE.
    65                           ; 
    66                           ; 
    67                           ; Code-generator required, PIC18F46K42 Definitions
    68                           ; 
    69                           ; SFR Addresses
    70  0000                     
    71                           	psect	idataCOMRAM
    72  001A86                     __pidataCOMRAM:
    73                           	callstack 0
    74                           
    75                           ;initializer for _phone_num
    76  001A86  46                 	db	low STR_1
    77  001A87  10                 	db	high STR_1
    78  0000                     _PIR3bits	set	14755
    79  0000                     _PIE3bits	set	14739
    80  0000                     _OSCTUNE	set	14814
    81  0000                     _OSCFRQ	set	14815
    82  0000                     _OSCEN	set	14813
    83  0000                     _OSCCON3	set	14811
    84  0000                     _OSCCON1	set	14809
    85  0000                     _U1RXPPS	set	15077
    86  0000                     _RC6PPS	set	14870
    87  0000                     _ANSELB	set	14928
    88  0000                     _ANSELC	set	14944
    89  0000                     _U1RXB	set	15848
    90  0000                     _U1BRGH	set	15862
    91  0000                     _U1BRGL	set	15861
    92  0000                     _U1CON1	set	15859
    93  0000                     _U1CON0	set	15858
    94  0000                     _U1FIFO	set	15863
    95  0000                     _U1TXB	set	15850
    96  0000                     _U1FIFObits	set	15863
    97  0000                     _LATB	set	16315
    98  0000                     _PORTCbits	set	16332
    99  0000                     _LATBbits	set	16315
   100  0000                     _INTCON0bits	set	16338
   101  0000                     _TRISC	set	16324
   102  0000                     _TRISB	set	16323
   103                           
   104                           	psect	smallconst
   105  001000                     __psmallconst:
   106                           	callstack 0
   107  001000  00                 	db	0
   108  001001                     STR_9:
   109                           
   110                           ; BSR set to: 57
   111  001001  43                 	db	67	;'C'
   112  001002  6F                 	db	111	;'o'
   113  001003  6E                 	db	110	;'n'
   114  001004  67                 	db	103	;'g'
   115  001005  72                 	db	114	;'r'
   116  001006  61                 	db	97	;'a'
   117  001007  74                 	db	116	;'t'
   118  001008  73                 	db	115	;'s'
   119  001009  2E                 	db	46
   120  00100A  2E                 	db	46
   121  00100B  2E                 	db	46
   122  00100C  2E                 	db	46
   123  00100D  55                 	db	85	;'U'
   124  00100E  41                 	db	65	;'A'
   125  00100F  52                 	db	82	;'R'
   126  001010  54                 	db	84	;'T'
   127  001011  20                 	db	32
   128  001012  68                 	db	104	;'h'
   129  001013  61                 	db	97	;'a'
   130  001014  76                 	db	118	;'v'
   131  001015  65                 	db	101	;'e'
   132  001016  20                 	db	32
   133  001017  73                 	db	115	;'s'
   134  001018  75                 	db	117	;'u'
   135  001019  63                 	db	99	;'c'
   136  00101A  63                 	db	99	;'c'
   137  00101B  65                 	db	101	;'e'
   138  00101C  73                 	db	115	;'s'
   139  00101D  73                 	db	115	;'s'
   140  00101E  66                 	db	102	;'f'
   141  00101F  75                 	db	117	;'u'
   142  001020  6C                 	db	108	;'l'
   143  001021  6C                 	db	108	;'l'
   144  001022  79                 	db	121	;'y'
   145  001023  20                 	db	32
   146  001024  73                 	db	115	;'s'
   147  001025  65                 	db	101	;'e'
   148  001026  6E                 	db	110	;'n'
   149  001027  64                 	db	100	;'d'
   150  001028  20                 	db	32
   151  001029  73                 	db	115	;'s'
   152  00102A  74                 	db	116	;'t'
   153  00102B  72                 	db	114	;'r'
   154  00102C  69                 	db	105	;'i'
   155  00102D  6E                 	db	110	;'n'
   156  00102E  67                 	db	103	;'g'
   157  00102F  00                 	db	0
   158  001030                     STR_13:
   159                           
   160                           ; BSR set to: 57
   161  001030  53                 	db	83	;'S'
   162  001031  49                 	db	73	;'I'
   163  001032  4D                 	db	77	;'M'
   164  001033  5F                 	db	95	;'_'
   165  001034  43                 	db	67	;'C'
   166  001035  41                 	db	65	;'A'
   167  001036  52                 	db	82	;'R'
   168  001037  44                 	db	68	;'D'
   169  001038  5F                 	db	95	;'_'
   170  001039  4E                 	db	78	;'N'
   171  00103A  4F                 	db	79	;'O'
   172  00103B  5F                 	db	95	;'_'
   173  00103C  52                 	db	82	;'R'
   174  00103D  45                 	db	69	;'E'
   175  00103E  47                 	db	71	;'G'
   176  00103F  5F                 	db	95	;'_'
   177  001040  45                 	db	69	;'E'
   178  001041  52                 	db	82	;'R'
   179  001042  52                 	db	82	;'R'
   180  001043  4F                 	db	79	;'O'
   181  001044  52                 	db	82	;'R'
   182  001045  00                 	db	0
   183  001046                     STR_1:
   184                           
   185                           ; BSR set to: 57
   186  001046  41                 	db	65	;'A'
   187  001047  54                 	db	84	;'T'
   188  001048  44                 	db	68	;'D'
   189  001049  2B                 	db	43
   190  00104A  32                 	db	50	;'2'
   191  00104B  35                 	db	53	;'5'
   192  00104C  31                 	db	49	;'1'
   193  00104D  39                 	db	57	;'9'
   194  00104E  37                 	db	55	;'7'
   195  00104F  34                 	db	52	;'4'
   196  001050  34                 	db	52	;'4'
   197  001051  33                 	db	51	;'3'
   198  001052  37                 	db	55	;'7'
   199  001053  39                 	db	57	;'9'
   200  001054  36                 	db	54	;'6'
   201  001055  30                 	db	48	;'0'
   202  001056  3B                 	db	59	;';'
   203  001057  00                 	db	0
   204  001058                     STR_12:
   205                           
   206                           ; BSR set to: 57
   207  001058  4E                 	db	78	;'N'
   208  001059  4F                 	db	79	;'O'
   209  00105A  5F                 	db	95	;'_'
   210  00105B  53                 	db	83	;'S'
   211  00105C  49                 	db	73	;'I'
   212  00105D  4D                 	db	77	;'M'
   213  00105E  5F                 	db	95	;'_'
   214  00105F  43                 	db	67	;'C'
   215  001060  41                 	db	65	;'A'
   216  001061  52                 	db	82	;'R'
   217  001062  44                 	db	68	;'D'
   218  001063  5F                 	db	95	;'_'
   219  001064  45                 	db	69	;'E'
   220  001065  52                 	db	82	;'R'
   221  001066  52                 	db	82	;'R'
   222  001067  4F                 	db	79	;'O'
   223  001068  52                 	db	82	;'R'
   224  001069  00                 	db	0
   225  00106A                     STR_11:
   226                           
   227                           ; BSR set to: 57
   228  00106A  43                 	db	67	;'C'
   229  00106B  4F                 	db	79	;'O'
   230  00106C  4D                 	db	77	;'M'
   231  00106D  4D                 	db	77	;'M'
   232  00106E  55                 	db	85	;'U'
   233  00106F  4E                 	db	78	;'N'
   234  001070  49                 	db	73	;'I'
   235  001071  54                 	db	84	;'T'
   236  001072  45                 	db	69	;'E'
   237  001073  5F                 	db	95	;'_'
   238  001074  45                 	db	69	;'E'
   239  001075  52                 	db	82	;'R'
   240  001076  52                 	db	82	;'R'
   241  001077  4F                 	db	79	;'O'
   242  001078  52                 	db	82	;'R'
   243  001079  00                 	db	0
   244  00107A                     STR_8:
   245                           
   246                           ; BSR set to: 57
   247  00107A  57                 	db	87	;'W'
   248  00107B  68                 	db	104	;'h'
   249  00107C  61                 	db	97	;'a'
   250  00107D  74                 	db	116	;'t'
   251  00107E  27                 	db	39
   252  00107F  73                 	db	115	;'s'
   253  001080  20                 	db	32
   254  001081  55                 	db	85	;'U'
   255  001082  50                 	db	80	;'P'
   256  001083  00                 	db	0
   257  001084                     STR_2:
   258                           
   259                           ; BSR set to: 57
   260  001084  41                 	db	65	;'A'
   261  001085  54                 	db	84	;'T'
   262  001086  2B                 	db	43
   263  001087  43                 	db	67	;'C'
   264  001088  52                 	db	82	;'R'
   265  001089  45                 	db	69	;'E'
   266  00108A  47                 	db	71	;'G'
   267  00108B  3F                 	db	63	;'?'
   268  00108C  00                 	db	0
   269  00108D                     STR_5:
   270                           
   271                           ; BSR set to: 57
   272  00108D  41                 	db	65	;'A'
   273  00108E  54                 	db	84	;'T'
   274  00108F  2B                 	db	43
   275  001090  43                 	db	67	;'C'
   276  001091  50                 	db	80	;'P'
   277  001092  49                 	db	73	;'I'
   278  001093  4E                 	db	78	;'N'
   279  001094  3F                 	db	63	;'?'
   280  001095  00                 	db	0
   281  001096                     STR_10:
   282                           
   283                           ; BSR set to: 57
   284  001096  53                 	db	83	;'S'
   285  001097  55                 	db	85	;'U'
   286  001098  43                 	db	67	;'C'
   287  001099  43                 	db	67	;'C'
   288  00109A  45                 	db	69	;'E'
   289  00109B  53                 	db	83	;'S'
   290  00109C  53                 	db	83	;'S'
   291  00109D  00                 	db	0
   292  00109E                     STR_6:
   293                           
   294                           ; BSR set to: 57
   295  00109E  52                 	db	82	;'R'
   296  00109F  45                 	db	69	;'E'
   297  0010A0  41                 	db	65	;'A'
   298  0010A1  44                 	db	68	;'D'
   299  0010A2  59                 	db	89	;'Y'
   300  0010A3  00                 	db	0
   301  0010A4                     STR_4:
   302                           
   303                           ; BSR set to: 57
   304  0010A4  4F                 	db	79	;'O'
   305  0010A5  4B                 	db	75	;'K'
   306  0010A6  00                 	db	0
   307  0010A7                     STR_3:
   308                           
   309                           ; BSR set to: 57
   310  0010A7  41                 	db	65	;'A'
   311  0010A8  54                 	db	84	;'T'
   312  0010A9  00                 	db	0
   313  0010AA  00                 	db	0	; dummy byte at the end
   314  0000                     
   315                           ; #config settings
   316                           
   317                           	psect	cinit
   318  0018D8                     __pcinit:
   319                           	callstack 0
   320  0018D8                     start_initialization:
   321                           	callstack 0
   322  0018D8                     __initialization:
   323                           	callstack 0
   324                           
   325                           ; Initialize objects allocated to COMRAM (2 bytes)
   326                           ; load TBLPTR registers with __pidataCOMRAM
   327  0018D8  0E86               	movlw	low __pidataCOMRAM
   328  0018DA  6EF6               	movwf	tblptrl,c
   329  0018DC  0E1A               	movlw	high __pidataCOMRAM
   330  0018DE  6EF7               	movwf	tblptrh,c
   331  0018E0  0E00               	movlw	low (__pidataCOMRAM shr (0+16))
   332  0018E2  6EF8               	movwf	tblptru,c
   333  0018E4  0009               	tblrd		*+	;fetch initializer
   334  0018E6  006F FFD4  F02A    	movff	tablat,__pdataCOMRAM
   335  0018EC  0009               	tblrd		*+	;fetch initializer
   336  0018EE  006F FFD4  F02B    	movff	tablat,__pdataCOMRAM+1
   337                           
   338                           ; Clear objects allocated to BANK0 (70 bytes)
   339  0018F4  EE00  F060         	lfsr	0,__pbssBANK0
   340  0018F8  0E46               	movlw	70
   341  0018FA                     clear_0:
   342  0018FA  6AEE               	clrf	postinc0,c
   343  0018FC  06E8               	decf	wreg,f,c
   344  0018FE  E1FD               	bnz	clear_0
   345                           
   346                           ; Clear objects allocated to COMRAM (4 bytes)
   347  001900  6A29               	clrf	(__pbssCOMRAM+3)& (0+255),c
   348  001902  6A28               	clrf	(__pbssCOMRAM+2)& (0+255),c
   349  001904  6A27               	clrf	(__pbssCOMRAM+1)& (0+255),c
   350  001906  6A26               	clrf	__pbssCOMRAM& (0+255),c
   351                           
   352                           ;
   353                           ; Setup IVTBASE
   354                           ;
   355  001908  0E08               	movlw	(ivt0x8_base shr 0)& (0+255)
   356  00190A  6ED5               	movwf	213,c
   357  00190C  0E00               	movlw	(ivt0x8_base shr (0+8))& (0+255)
   358  00190E  6ED6               	movwf	214,c
   359  001910  0E00               	movlw	(ivt0x8_base shr (0+16))& (0+255)
   360  001912  6ED7               	movwf	215,c
   361  001914                     end_of_initialization:
   362                           	callstack 0
   363  001914                     __end_of__initialization:
   364                           	callstack 0
   365  001914  0E00               	movlw	low (__Lsmallconst shr (0+16))
   366  001916  6EF8               	movwf	tblptru,c
   367  001918  0E10               	movlw	high __Lsmallconst
   368  00191A  6EF7               	movwf	tblptrh,c
   369  00191C  0100               	movlb	0
   370  00191E  EF56  F008         	goto	_main	;jump to C main() function
   371                           
   372                           	psect	bssCOMRAM
   373  000026                     __pbssCOMRAM:
   374                           	callstack 0
   375  000026                     _rs232:
   376                           	callstack 0
   377  000026                     	ds	3
   378  000029                     _First_Int:
   379                           	callstack 0
   380  000029                     	ds	1
   381                           
   382                           	psect	dataCOMRAM
   383  00002A                     __pdataCOMRAM:
   384                           	callstack 0
   385  00002A                     	ds	2
   386                           
   387                           	psect	bssBANK0
   388  000060                     __pbssBANK0:
   389                           	callstack 0
   390  000060                     _Uart1_Buf:
   391                           	callstack 0
   392  000060                     	ds	70
   393                           
   394                           	psect	cstackCOMRAM
   395  000001                     __pcstackCOMRAM:
   396                           	callstack 0
   397  000001                     ?_strlen:
   398                           	callstack 0
   399  000001                     ?_strncmp:
   400                           	callstack 0
   401  000001                     ?_strchr:
   402                           	callstack 0
   403  000001                     CLR_Buf@k:
   404                           	callstack 0
   405  000001                     UART1_SendData@dat:
   406                           	callstack 0
   407  000001                     delay_ms@ms:
   408                           	callstack 0
   409  000001                     strchr@s:
   410                           	callstack 0
   411  000001                     strlen@s:
   412                           	callstack 0
   413  000001                     strncmp@_l:
   414                           	callstack 0
   415                           
   416                           ; 2 bytes @ 0x0
   417  000001                     	ds	1
   418  000002                     UART1_Send_Greeting@s:
   419                           	callstack 0
   420  000002                     UART1_Send_Command@s:
   421                           	callstack 0
   422                           
   423                           ; 2 bytes @ 0x1
   424  000002                     	ds	1
   425  000003                     ??_delay_ms:
   426  000003                     strchr@c:
   427                           	callstack 0
   428  000003                     strlen@a:
   429                           	callstack 0
   430  000003                     strncmp@_r:
   431                           	callstack 0
   432                           
   433                           ; 2 bytes @ 0x2
   434  000003                     	ds	1
   435  000004                     ??_Wait_CREG:
   436  000004                     delay_ms@i:
   437                           	callstack 0
   438                           
   439                           ; 2 bytes @ 0x3
   440  000004                     	ds	1
   441  000005                     Wait_CREG@query_times:
   442                           	callstack 0
   443  000005                     strncmp@n:
   444                           	callstack 0
   445                           
   446                           ; 2 bytes @ 0x4
   447  000005                     	ds	1
   448  000006                     Wait_CREG@i:
   449                           	callstack 0
   450                           
   451                           ; 1 bytes @ 0x5
   452  000006                     	ds	1
   453  000007                     ??_strncmp:
   454  000007                     Wait_CREG@j:
   455                           	callstack 0
   456                           
   457                           ; 1 bytes @ 0x6
   458  000007                     	ds	1
   459  000008                     Wait_CREG@k:
   460                           	callstack 0
   461  000008                     strncmp@l:
   462                           	callstack 0
   463                           
   464                           ; 2 bytes @ 0x7
   465  000008                     	ds	2
   466  00000A                     strncmp@r:
   467                           	callstack 0
   468                           
   469                           ; 2 bytes @ 0x9
   470  00000A                     	ds	2
   471  00000C                     ?_strstr:
   472                           	callstack 0
   473  00000C                     strstr@h:
   474                           	callstack 0
   475                           
   476                           ; 2 bytes @ 0xB
   477  00000C                     	ds	2
   478  00000E                     strstr@n:
   479                           	callstack 0
   480                           
   481                           ; 2 bytes @ 0xD
   482  00000E                     	ds	2
   483  000010                     strstr@nl:
   484                           	callstack 0
   485                           
   486                           ; 2 bytes @ 0xF
   487  000010                     	ds	2
   488  000012                     Find@a:
   489                           	callstack 0
   490                           
   491                           ; 2 bytes @ 0x11
   492  000012                     	ds	2
   493  000014                     UART1_Send_AT_Command@b:
   494                           	callstack 0
   495                           
   496                           ; 2 bytes @ 0x13
   497  000014                     	ds	2
   498  000016                     UART1_Send_AT_Command@a:
   499                           	callstack 0
   500                           
   501                           ; 2 bytes @ 0x15
   502  000016                     	ds	2
   503  000018                     UART1_Send_AT_Command@wait_time:
   504                           	callstack 0
   505                           
   506                           ; 1 bytes @ 0x17
   507  000018                     	ds	1
   508  000019                     UART1_Send_AT_Command@interval_time:
   509                           	callstack 0
   510                           
   511                           ; 2 bytes @ 0x18
   512  000019                     	ds	2
   513  00001B                     UART1_Send_AT_Command@i:
   514                           	callstack 0
   515                           
   516                           ; 1 bytes @ 0x1A
   517  00001B                     	ds	1
   518  00001C                     ?_call_phone_num:
   519                           	callstack 0
   520  00001C                     call_phone_num@phone:
   521                           	callstack 0
   522                           
   523                           ; 2 bytes @ 0x1B
   524  00001C                     	ds	2
   525  00001E                     ??_call_phone_num:
   526                           
   527                           ; 1 bytes @ 0x1D
   528  00001E                     	ds	1
   529  00001F                     call_phone_num@ret:
   530                           	callstack 0
   531                           
   532                           ; 2 bytes @ 0x1E
   533  00001F                     	ds	2
   534  000021                     ??_main:
   535                           
   536                           ; 1 bytes @ 0x20
   537  000021                     	ds	2
   538  000023                     main@i:
   539                           	callstack 0
   540                           
   541                           ; 1 bytes @ 0x22
   542  000023                     	ds	1
   543  000024                     main@ret:
   544                           	callstack 0
   545                           
   546                           ; 2 bytes @ 0x23
   547  000024                     	ds	2
   548                           
   549 ;;
   550 ;;Main: autosize = 0, tempsize = 2, incstack = 0, save=0
   551 ;;
   552 ;; *************** function _main *****************
   553 ;; Defined at:
   554 ;;		line 30 in file "main.c"
   555 ;; Parameters:    Size  Location     Type
   556 ;;		None
   557 ;; Auto vars:     Size  Location     Type
   558 ;;  ret             2   35[COMRAM] int 
   559 ;;  i               1   34[COMRAM] unsigned char 
   560 ;; Return value:  Size  Location     Type
   561 ;;                  1    wreg      void 
   562 ;; Registers used:
   563 ;;		wreg, fsr2l, fsr2h, status,2, status,0, tblptrl, tblptrh, tblptru, cstack
   564 ;; Tracked objects:
   565 ;;		On entry : 0/0
   566 ;;		On exit  : 0/0
   567 ;;		Unchanged: 0/0
   568 ;; Data sizes:     COMRAM   BANK0   BANK1   BANK2   BANK3   BANK4   BANK5   BANK6   BANK7   BANK8   BANK9  BANK10  BANK1
      +1  BANK12  BANK13  BANK14  BANK15
   569 ;;      Params:         0       0       0       0       0       0       0       0       0       0       0       0       
      +0       0       0       0       0
   570 ;;      Locals:         3       0       0       0       0       0       0       0       0       0       0       0       
      +0       0       0       0       0
   571 ;;      Temps:          2       0       0       0       0       0       0       0       0       0       0       0       
      +0       0       0       0       0
   572 ;;      Totals:         5       0       0       0       0       0       0       0       0       0       0       0       
      +0       0       0       0       0
   573 ;;Total ram usage:        5 bytes
   574 ;; Hardware stack levels required when called:    6
   575 ;; This function calls:
   576 ;;		_OSCILLATOR_Initialize
   577 ;;		_PIN_Initialize
   578 ;;		_UART1_Send_Greeting
   579 ;;		_UART_Initialize
   580 ;;		_call_phone_num
   581 ;; This function is called by:
   582 ;;		Startup code after reset
   583 ;; This function uses a non-reentrant model
   584 ;;
   585                           
   586                           	psect	text0
   587  0010AC                     __ptext0:
   588                           	callstack 0
   589  0010AC                     _main:
   590                           	callstack 25
   591  0010AC                     
   592                           ;main.c: 32:     PIN_Initialize();
   593  0010AC  EC1C  F00D         	call	_PIN_Initialize	;wreg free
   594                           
   595                           ;main.c: 33:     OSCILLATOR_Initialize();
   596  0010B0  EC37  F00D         	call	_OSCILLATOR_Initialize	;wreg free
   597                           
   598                           ;main.c: 34:     UART_Initialize();
   599  0010B4  EC08  F00D         	call	_UART_Initialize	;wreg free
   600  0010B8                     
   601                           ;main.c: 36:     INTCON0bits.GIE = 1;
   602  0010B8  8ED2               	bsf	210,7,c	;volatile
   603  0010BA                     
   604                           ;main.c: 38:     _delay((unsigned long)((1000)*(4000000/4000.0)));
   605  0010BA  0E06               	movlw	6
   606  0010BC  6E22               	movwf	(??_main+1)^0,c
   607  0010BE  0E13               	movlw	19
   608  0010C0  6E21               	movwf	??_main^0,c
   609  0010C2  0EAE               	movlw	174
   610  0010C4                     u1097:
   611  0010C4  2EE8               	decfsz	wreg,f,c
   612  0010C6  D7FE               	bra	u1097
   613  0010C8  2E21               	decfsz	??_main^0,f,c
   614  0010CA  D7FC               	bra	u1097
   615  0010CC  2E22               	decfsz	(??_main+1)^0,f,c
   616  0010CE  D7FA               	bra	u1097
   617  0010D0                     
   618                           ;main.c: 40:     UART1_Send_Greeting("What's UP");
   619  0010D0  0E7A               	movlw	low STR_8
   620  0010D2  6E02               	movwf	UART1_Send_Greeting@s^0,c
   621  0010D4  0E10               	movlw	high STR_8
   622  0010D6  6E03               	movwf	(UART1_Send_Greeting@s+1)^0,c
   623  0010D8  EC45  F00C         	call	_UART1_Send_Greeting	;wreg free
   624  0010DC                     
   625                           ;main.c: 41:     UART1_Send_Greeting("Congrats....UART have successfully send string");
   626  0010DC  0E01               	movlw	low STR_9
   627  0010DE  6E02               	movwf	UART1_Send_Greeting@s^0,c
   628  0010E0  0E10               	movlw	high STR_9
   629  0010E2  6E03               	movwf	(UART1_Send_Greeting@s+1)^0,c
   630  0010E4  EC45  F00C         	call	_UART1_Send_Greeting	;wreg free
   631  0010E8                     
   632                           ;main.c: 43:     u8 i;;main.c: 44:     int ret;;main.c: 46:         for(i = 0;i < 10;i++
      +                          )
   633  0010E8  0E00               	movlw	0
   634  0010EA  6E23               	movwf	main@i^0,c
   635  0010EC                     l1534:
   636                           
   637                           ;main.c: 47:         {;main.c: 48:                 _delay((unsigned long)((1000)*(400000
      +                          0/4000.0)));
   638  0010EC  0E06               	movlw	6
   639  0010EE  6E22               	movwf	(??_main+1)^0,c
   640  0010F0  0E13               	movlw	19
   641  0010F2  6E21               	movwf	??_main^0,c
   642  0010F4  0EAE               	movlw	174
   643  0010F6                     u1107:
   644  0010F6  2EE8               	decfsz	wreg,f,c
   645  0010F8  D7FE               	bra	u1107
   646  0010FA  2E21               	decfsz	??_main^0,f,c
   647  0010FC  D7FC               	bra	u1107
   648  0010FE  2E22               	decfsz	(??_main+1)^0,f,c
   649  001100  D7FA               	bra	u1107
   650  001102                     
   651                           ;main.c: 49:         }
   652  001102  2A23               	incf	main@i^0,f,c
   653  001104  0E09               	movlw	9
   654  001106  6423               	cpfsgt	main@i^0,c
   655  001108  EF88  F008         	goto	u991
   656  00110C  EF8A  F008         	goto	u990
   657  001110                     u991:
   658  001110  EF76  F008         	goto	l1534
   659  001114                     u990:
   660  001114                     l1538:
   661                           
   662                           ;main.c: 52:     {;main.c: 53:  _delay((unsigned long)((500)*(4000000/4000.0)));
   663  001114  0E03               	movlw	3
   664  001116  6E22               	movwf	(??_main+1)^0,c
   665  001118  0E8A               	movlw	138
   666  00111A  6E21               	movwf	??_main^0,c
   667  00111C  0E56               	movlw	86
   668  00111E                     u1117:
   669  00111E  2EE8               	decfsz	wreg,f,c
   670  001120  D7FE               	bra	u1117
   671  001122  2E21               	decfsz	??_main^0,f,c
   672  001124  D7FC               	bra	u1117
   673  001126  2E22               	decfsz	(??_main+1)^0,f,c
   674  001128  D7FA               	bra	u1117
   675  00112A  B0BB               	btfsc	187,0,c	;volatile
   676  00112C  EF9A  F008         	goto	u1001
   677  001130  EF9D  F008         	goto	u1000
   678  001134                     u1001:
   679  001134  0E01               	movlw	1
   680  001136  EF9E  F008         	goto	u1006
   681  00113A                     u1000:
   682  00113A  0E00               	movlw	0
   683  00113C                     u1006:
   684  00113C  0AFF               	xorlw	255
   685  00113E  6E21               	movwf	??_main^0,c
   686  001140  50BB               	movf	187,w,c	;volatile
   687  001142  1821               	xorwf	??_main^0,w,c
   688  001144  0BFE               	andlw	-2
   689  001146  1821               	xorwf	??_main^0,w,c
   690  001148  6EBB               	movwf	187,c	;volatile
   691  00114A                     
   692                           ;main.c: 56:   if(PORTCbits.RC5== 0)
   693  00114A  BACC               	btfsc	204,5,c	;volatile
   694  00114C  EFAA  F008         	goto	u1011
   695  001150  EFAC  F008         	goto	u1010
   696  001154                     u1011:
   697  001154  EF8A  F008         	goto	l1538
   698  001158                     u1010:
   699  001158                     
   700                           ;main.c: 58:    {;main.c: 59:             _delay((unsigned long)((100)*(4000000/4000.0))
      +                          );
   701  001158  0E82               	movlw	130
   702  00115A  6E21               	movwf	??_main^0,c
   703  00115C  0EDE               	movlw	222
   704  00115E                     u1127:
   705  00115E  2EE8               	decfsz	wreg,f,c
   706  001160  D7FE               	bra	u1127
   707  001162  2E21               	decfsz	??_main^0,f,c
   708  001164  D7FC               	bra	u1127
   709  001166                     
   710                           ;main.c: 61:    if(PORTCbits.RC5== 0)
   711  001166  BACC               	btfsc	204,5,c	;volatile
   712  001168  EFB8  F008         	goto	u1021
   713  00116C  EFBA  F008         	goto	u1020
   714  001170                     u1021:
   715  001170  EF8A  F008         	goto	l1538
   716  001174                     u1020:
   717  001174                     l158:
   718  001174  AACC               	btfss	204,5,c	;volatile
   719  001176  EFBF  F008         	goto	u1031
   720  00117A  EFC1  F008         	goto	u1030
   721  00117E                     u1031:
   722  00117E  EFBA  F008         	goto	l158
   723  001182                     u1030:
   724  001182  0E46               	movlw	low STR_1
   725  001184  6E1C               	movwf	call_phone_num@phone^0,c
   726  001186  0E10               	movlw	high STR_1
   727  001188  6E1D               	movwf	(call_phone_num@phone+1)^0,c
   728  00118A  EC10  F00A         	call	_call_phone_num	;wreg free
   729  00118E  C01C  F024         	movff	?_call_phone_num,main@ret
   730  001192  C01D  F025         	movff	?_call_phone_num+1,main@ret+1
   731  001196                     
   732                           ;main.c: 67:     if(ret == 1)
   733  001196  0424               	decf	main@ret^0,w,c
   734  001198  1025               	iorwf	(main@ret+1)^0,w,c
   735  00119A  A4D8               	btfss	status,2,c
   736  00119C  EFD2  F008         	goto	u1041
   737  0011A0  EFD4  F008         	goto	u1040
   738  0011A4                     u1041:
   739  0011A4  EFDE  F008         	goto	l1558
   740  0011A8                     u1040:
   741  0011A8                     
   742                           ;main.c: 68:     {;main.c: 69:                     LATB = 0x1;
   743  0011A8  0E01               	movlw	1
   744  0011AA  6EBB               	movwf	187,c	;volatile
   745  0011AC                     
   746                           ;main.c: 70:                     UART1_Send_Greeting("SUCCESS");
   747  0011AC  0E96               	movlw	low STR_10
   748  0011AE  6E02               	movwf	UART1_Send_Greeting@s^0,c
   749  0011B0  0E10               	movlw	high STR_10
   750  0011B2  6E03               	movwf	(UART1_Send_Greeting@s+1)^0,c
   751  0011B4  EC45  F00C         	call	_UART1_Send_Greeting	;wreg free
   752                           
   753                           ;main.c: 72:     }
   754  0011B8  EF2D  F009         	goto	l1582
   755  0011BC                     l1558:
   756  0011BC  2824               	incf	main@ret^0,w,c
   757  0011BE  E106               	bnz	u1051
   758  0011C0  2825               	incf	(main@ret+1)^0,w,c
   759  0011C2  A4D8               	btfss	status,2,c
   760  0011C4  EFE6  F008         	goto	u1051
   761  0011C8  EFE8  F008         	goto	u1050
   762  0011CC                     u1051:
   763  0011CC  EFF2  F008         	goto	l1564
   764  0011D0                     u1050:
   765  0011D0                     
   766                           ;main.c: 74:     {;main.c: 75:                     LATB = 0x2;
   767  0011D0  0E02               	movlw	2
   768  0011D2  6EBB               	movwf	187,c	;volatile
   769  0011D4                     
   770                           ;main.c: 76:                     UART1_Send_Greeting("COMMUNITE_ERROR");
   771  0011D4  0E6A               	movlw	low STR_11
   772  0011D6  6E02               	movwf	UART1_Send_Greeting@s^0,c
   773  0011D8  0E10               	movlw	high STR_11
   774  0011DA  6E03               	movwf	(UART1_Send_Greeting@s+1)^0,c
   775  0011DC  EC45  F00C         	call	_UART1_Send_Greeting	;wreg free
   776                           
   777                           ;main.c: 78:     }
   778  0011E0  EF2D  F009         	goto	l1582
   779  0011E4                     l1564:
   780  0011E4  0EFE               	movlw	254
   781  0011E6  1824               	xorwf	main@ret^0,w,c
   782  0011E8  E106               	bnz	u1061
   783  0011EA  2825               	incf	(main@ret+1)^0,w,c
   784  0011EC  A4D8               	btfss	status,2,c
   785  0011EE  EFFB  F008         	goto	u1061
   786  0011F2  EFFD  F008         	goto	u1060
   787  0011F6                     u1061:
   788  0011F6  EF07  F009         	goto	l1570
   789  0011FA                     u1060:
   790  0011FA                     
   791                           ;main.c: 80:     {;main.c: 81:                     LATB = 0x3;
   792  0011FA  0E03               	movlw	3
   793  0011FC  6EBB               	movwf	187,c	;volatile
   794  0011FE                     
   795                           ;main.c: 82:                     UART1_Send_Greeting("NO_SIM_CARD_ERROR");
   796  0011FE  0E58               	movlw	low STR_12
   797  001200  6E02               	movwf	UART1_Send_Greeting@s^0,c
   798  001202  0E10               	movlw	high STR_12
   799  001204  6E03               	movwf	(UART1_Send_Greeting@s+1)^0,c
   800  001206  EC45  F00C         	call	_UART1_Send_Greeting	;wreg free
   801                           
   802                           ;main.c: 85:     }
   803  00120A  EF2D  F009         	goto	l1582
   804  00120E                     l1570:
   805  00120E  0EFD               	movlw	253
   806  001210  1824               	xorwf	main@ret^0,w,c
   807  001212  E106               	bnz	u1071
   808  001214  2825               	incf	(main@ret+1)^0,w,c
   809  001216  A4D8               	btfss	status,2,c
   810  001218  EF10  F009         	goto	u1071
   811  00121C  EF12  F009         	goto	u1070
   812  001220                     u1071:
   813  001220  EF1C  F009         	goto	l1576
   814  001224                     u1070:
   815  001224                     
   816                           ;main.c: 87:     {;main.c: 88:                     LATB = 0x4;
   817  001224  0E04               	movlw	4
   818  001226  6EBB               	movwf	187,c	;volatile
   819  001228                     
   820                           ;main.c: 89:                     UART1_Send_Greeting("SIM_CARD_NO_REG_ERROR");
   821  001228  0E30               	movlw	low STR_13
   822  00122A  6E02               	movwf	UART1_Send_Greeting@s^0,c
   823  00122C  0E10               	movlw	high STR_13
   824  00122E  6E03               	movwf	(UART1_Send_Greeting@s+1)^0,c
   825  001230  EC45  F00C         	call	_UART1_Send_Greeting	;wreg free
   826                           
   827                           ;main.c: 91:                 }
   828  001234  EF2D  F009         	goto	l1582
   829  001238                     l1576:
   830  001238  0EFC               	movlw	252
   831  00123A  1824               	xorwf	main@ret^0,w,c
   832  00123C  E106               	bnz	u1081
   833  00123E  2825               	incf	(main@ret+1)^0,w,c
   834  001240  A4D8               	btfss	status,2,c
   835  001242  EF25  F009         	goto	u1081
   836  001246  EF27  F009         	goto	u1080
   837  00124A                     u1081:
   838  00124A  EF2B  F009         	goto	l1580
   839  00124E                     u1080:
   840  00124E                     
   841                           ;main.c: 93:     {;main.c: 94:                     LATB = 0x5;
   842  00124E  0E05               	movlw	5
   843  001250  6EBB               	movwf	187,c	;volatile
   844                           
   845                           ;main.c: 95:     }
   846  001252  EF2D  F009         	goto	l1582
   847  001256                     l1580:
   848                           
   849                           ;main.c: 97:     {;main.c: 98:                     LATB = 0x6;
   850  001256  0E06               	movlw	6
   851  001258  6EBB               	movwf	187,c	;volatile
   852  00125A                     l1582:
   853                           
   854                           ;main.c: 101:                 _delay((unsigned long)((3000)*(4000000/4000.0)));
   855  00125A  0E10               	movlw	16
   856  00125C  6E22               	movwf	(??_main+1)^0,c
   857  00125E  0E39               	movlw	57
   858  001260  6E21               	movwf	??_main^0,c
   859  001262  0E0E               	movlw	14
   860  001264                     u1137:
   861  001264  2EE8               	decfsz	wreg,f,c
   862  001266  D7FE               	bra	u1137
   863  001268  2E21               	decfsz	??_main^0,f,c
   864  00126A  D7FC               	bra	u1137
   865  00126C  2E22               	decfsz	(??_main+1)^0,f,c
   866  00126E  D7FA               	bra	u1137
   867  001270                     
   868                           ;main.c: 102:                 LATB = 0x00;
   869  001270  0E00               	movlw	0
   870  001272  6EBB               	movwf	187,c	;volatile
   871  001274  EF8A  F008         	goto	l1538
   872  001278  EF0D  F000         	goto	start
   873  00127C                     __end_of_main:
   874                           	callstack 0
   875                           
   876 ;; *************** function _call_phone_num *****************
   877 ;; Defined at:
   878 ;;		line 122 in file "./gsmSim800l.h"
   879 ;; Parameters:    Size  Location     Type
   880 ;;  phone           2   27[COMRAM] PTR unsigned char 
   881 ;;		 -> STR_1(18), 
   882 ;; Auto vars:     Size  Location     Type
   883 ;;  ret             2   30[COMRAM] int 
   884 ;; Return value:  Size  Location     Type
   885 ;;                  2   27[COMRAM] int 
   886 ;; Registers used:
   887 ;;		wreg, fsr2l, fsr2h, status,2, status,0, tblptrl, tblptrh, tblptru, cstack
   888 ;; Tracked objects:
   889 ;;		On entry : 0/0
   890 ;;		On exit  : 0/0
   891 ;;		Unchanged: 0/0
   892 ;; Data sizes:     COMRAM   BANK0   BANK1   BANK2   BANK3   BANK4   BANK5   BANK6   BANK7   BANK8   BANK9  BANK10  BANK1
      +1  BANK12  BANK13  BANK14  BANK15
   893 ;;      Params:         2       0       0       0       0       0       0       0       0       0       0       0       
      +0       0       0       0       0
   894 ;;      Locals:         2       0       0       0       0       0       0       0       0       0       0       0       
      +0       0       0       0       0
   895 ;;      Temps:          1       0       0       0       0       0       0       0       0       0       0       0       
      +0       0       0       0       0
   896 ;;      Totals:         5       0       0       0       0       0       0       0       0       0       0       0       
      +0       0       0       0       0
   897 ;;Total ram usage:        5 bytes
   898 ;; Hardware stack levels used:    1
   899 ;; Hardware stack levels required when called:    5
   900 ;; This function calls:
   901 ;;		_UART1_Send_AT_Command
   902 ;;		_Wait_CREG
   903 ;; This function is called by:
   904 ;;		_main
   905 ;; This function uses a non-reentrant model
   906 ;;
   907                           
   908                           	psect	text1
   909  001420                     __ptext1:
   910                           	callstack 0
   911  001420                     _call_phone_num:
   912                           	callstack 25
   913  001420                     
   914                           ;./gsmSim800l.h: 122: int call_phone_num(char *phone);./gsmSim800l.h: 123: {;./gsmSim800
      +                          l.h: 124:  int ret;;./gsmSim800l.h: 127:     ret = UART1_Send_AT_Command("AT","OK",3,50)
      +                          ;
   915  001420  0EA7               	movlw	low STR_3
   916  001422  6E14               	movwf	UART1_Send_AT_Command@b^0,c
   917  001424  0E10               	movlw	high STR_3
   918  001426  6E15               	movwf	(UART1_Send_AT_Command@b+1)^0,c
   919  001428  0EA4               	movlw	low STR_4
   920  00142A  6E16               	movwf	UART1_Send_AT_Command@a^0,c
   921  00142C  0E10               	movlw	high STR_4
   922  00142E  6E17               	movwf	(UART1_Send_AT_Command@a+1)^0,c
   923  001430  0E03               	movlw	3
   924  001432  6E18               	movwf	UART1_Send_AT_Command@wait_time^0,c
   925  001434  0E00               	movlw	0
   926  001436  6E1A               	movwf	(UART1_Send_AT_Command@interval_time+1)^0,c
   927  001438  0E32               	movlw	50
   928  00143A  6E19               	movwf	UART1_Send_AT_Command@interval_time^0,c
   929  00143C  ECC3  F00B         	call	_UART1_Send_AT_Command	;wreg free
   930  001440  6E1E               	movwf	??_call_phone_num^0,c
   931  001442  501E               	movf	??_call_phone_num^0,w,c
   932  001444  6E1F               	movwf	call_phone_num@ret^0,c
   933  001446  6A20               	clrf	(call_phone_num@ret+1)^0,c
   934  001448                     
   935                           ;./gsmSim800l.h: 130:  if(ret == 0)
   936  001448  501F               	movf	call_phone_num@ret^0,w,c
   937  00144A  1020               	iorwf	(call_phone_num@ret+1)^0,w,c
   938  00144C  A4D8               	btfss	status,2,c
   939  00144E  EF2B  F00A         	goto	u881
   940  001452  EF2D  F00A         	goto	u880
   941  001456                     u881:
   942  001456  EF31  F00A         	goto	l1456
   943  00145A                     u880:
   944  00145A                     
   945                           ;./gsmSim800l.h: 131:  {;./gsmSim800l.h: 132:   return -1;
   946  00145A  681C               	setf	?_call_phone_num^0,c
   947  00145C  681D               	setf	(?_call_phone_num+1)^0,c
   948  00145E  EF91  F00A         	goto	l131
   949  001462                     l1456:
   950                           
   951                           ;./gsmSim800l.h: 135:  ret = UART1_Send_AT_Command("AT+CPIN?","READY",3,50);
   952  001462  0E8D               	movlw	low STR_5
   953  001464  6E14               	movwf	UART1_Send_AT_Command@b^0,c
   954  001466  0E10               	movlw	high STR_5
   955  001468  6E15               	movwf	(UART1_Send_AT_Command@b+1)^0,c
   956  00146A  0E9E               	movlw	low STR_6
   957  00146C  6E16               	movwf	UART1_Send_AT_Command@a^0,c
   958  00146E  0E10               	movlw	high STR_6
   959  001470  6E17               	movwf	(UART1_Send_AT_Command@a+1)^0,c
   960  001472  0E03               	movlw	3
   961  001474  6E18               	movwf	UART1_Send_AT_Command@wait_time^0,c
   962  001476  0E00               	movlw	0
   963  001478  6E1A               	movwf	(UART1_Send_AT_Command@interval_time+1)^0,c
   964  00147A  0E32               	movlw	50
   965  00147C  6E19               	movwf	UART1_Send_AT_Command@interval_time^0,c
   966  00147E  ECC3  F00B         	call	_UART1_Send_AT_Command	;wreg free
   967  001482  6E1E               	movwf	??_call_phone_num^0,c
   968  001484  501E               	movf	??_call_phone_num^0,w,c
   969  001486  6E1F               	movwf	call_phone_num@ret^0,c
   970  001488  6A20               	clrf	(call_phone_num@ret+1)^0,c
   971  00148A                     
   972                           ;./gsmSim800l.h: 136:  if(ret == 0)
   973  00148A  501F               	movf	call_phone_num@ret^0,w,c
   974  00148C  1020               	iorwf	(call_phone_num@ret+1)^0,w,c
   975  00148E  A4D8               	btfss	status,2,c
   976  001490  EF4C  F00A         	goto	u891
   977  001494  EF4E  F00A         	goto	u890
   978  001498                     u891:
   979  001498  EF54  F00A         	goto	l1464
   980  00149C                     u890:
   981  00149C                     
   982                           ;./gsmSim800l.h: 137:  {;./gsmSim800l.h: 138:   return -2;
   983  00149C  0EFF               	movlw	255
   984  00149E  6E1D               	movwf	(?_call_phone_num+1)^0,c
   985  0014A0  0EFE               	movlw	254
   986  0014A2  6E1C               	movwf	?_call_phone_num^0,c
   987  0014A4  EF91  F00A         	goto	l131
   988  0014A8                     l1464:
   989                           
   990                           ;./gsmSim800l.h: 141:  ret = Wait_CREG(3);
   991  0014A8  0E03               	movlw	3
   992  0014AA  EC3E  F009         	call	_Wait_CREG
   993  0014AE  6E1E               	movwf	??_call_phone_num^0,c
   994  0014B0  501E               	movf	??_call_phone_num^0,w,c
   995  0014B2  6E1F               	movwf	call_phone_num@ret^0,c
   996  0014B4  6A20               	clrf	(call_phone_num@ret+1)^0,c
   997  0014B6                     
   998                           ;./gsmSim800l.h: 142:  if(ret == 0)
   999  0014B6  501F               	movf	call_phone_num@ret^0,w,c
  1000  0014B8  1020               	iorwf	(call_phone_num@ret+1)^0,w,c
  1001  0014BA  A4D8               	btfss	status,2,c
  1002  0014BC  EF62  F00A         	goto	u901
  1003  0014C0  EF64  F00A         	goto	u900
  1004  0014C4                     u901:
  1005  0014C4  EF6A  F00A         	goto	l1472
  1006  0014C8                     u900:
  1007  0014C8                     
  1008                           ;./gsmSim800l.h: 143:  {;./gsmSim800l.h: 144:   return -3;
  1009  0014C8  0EFF               	movlw	255
  1010  0014CA  6E1D               	movwf	(?_call_phone_num+1)^0,c
  1011  0014CC  0EFD               	movlw	253
  1012  0014CE  6E1C               	movwf	?_call_phone_num^0,c
  1013  0014D0  EF91  F00A         	goto	l131
  1014  0014D4                     l1472:
  1015                           
  1016                           ;./gsmSim800l.h: 148:  ret = UART1_Send_AT_Command(phone,"OK",2,50);
  1017  0014D4  C01C  F014         	movff	call_phone_num@phone,UART1_Send_AT_Command@b
  1018  0014D8  C01D  F015         	movff	call_phone_num@phone+1,UART1_Send_AT_Command@b+1
  1019  0014DC  0EA4               	movlw	low STR_4
  1020  0014DE  6E16               	movwf	UART1_Send_AT_Command@a^0,c
  1021  0014E0  0E10               	movlw	high STR_4
  1022  0014E2  6E17               	movwf	(UART1_Send_AT_Command@a+1)^0,c
  1023  0014E4  0E02               	movlw	2
  1024  0014E6  6E18               	movwf	UART1_Send_AT_Command@wait_time^0,c
  1025  0014E8  0E00               	movlw	0
  1026  0014EA  6E1A               	movwf	(UART1_Send_AT_Command@interval_time+1)^0,c
  1027  0014EC  0E32               	movlw	50
  1028  0014EE  6E19               	movwf	UART1_Send_AT_Command@interval_time^0,c
  1029  0014F0  ECC3  F00B         	call	_UART1_Send_AT_Command	;wreg free
  1030  0014F4  6E1E               	movwf	??_call_phone_num^0,c
  1031  0014F6  501E               	movf	??_call_phone_num^0,w,c
  1032  0014F8  6E1F               	movwf	call_phone_num@ret^0,c
  1033  0014FA  6A20               	clrf	(call_phone_num@ret+1)^0,c
  1034  0014FC                     
  1035                           ;./gsmSim800l.h: 149:  if(ret == 0)
  1036  0014FC  501F               	movf	call_phone_num@ret^0,w,c
  1037  0014FE  1020               	iorwf	(call_phone_num@ret+1)^0,w,c
  1038  001500  A4D8               	btfss	status,2,c
  1039  001502  EF85  F00A         	goto	u911
  1040  001506  EF87  F00A         	goto	u910
  1041  00150A                     u911:
  1042  00150A  EF8D  F00A         	goto	l1480
  1043  00150E                     u910:
  1044  00150E                     
  1045                           ;./gsmSim800l.h: 150:  {;./gsmSim800l.h: 151:   return -4;
  1046  00150E  0EFF               	movlw	255
  1047  001510  6E1D               	movwf	(?_call_phone_num+1)^0,c
  1048  001512  0EFC               	movlw	252
  1049  001514  6E1C               	movwf	?_call_phone_num^0,c
  1050  001516  EF91  F00A         	goto	l131
  1051  00151A                     l1480:
  1052                           
  1053                           ;./gsmSim800l.h: 154:  return 1;
  1054  00151A  0E00               	movlw	0
  1055  00151C  6E1D               	movwf	(?_call_phone_num+1)^0,c
  1056  00151E  0E01               	movlw	1
  1057  001520  6E1C               	movwf	?_call_phone_num^0,c
  1058  001522                     l131:
  1059  001522  0012               	return		;funcret
  1060  001524                     __end_of_call_phone_num:
  1061                           	callstack 0
  1062                           
  1063 ;; *************** function _Wait_CREG *****************
  1064 ;; Defined at:
  1065 ;;		line 55 in file "./gsmSim800l.h"
  1066 ;; Parameters:    Size  Location     Type
  1067 ;;  query_times     1    wreg     unsigned char 
  1068 ;; Auto vars:     Size  Location     Type
  1069 ;;  query_times     1    4[COMRAM] unsigned char 
  1070 ;;  k               1    7[COMRAM] unsigned char 
  1071 ;;  j               1    6[COMRAM] unsigned char 
  1072 ;;  i               1    5[COMRAM] unsigned char 
  1073 ;; Return value:  Size  Location     Type
  1074 ;;                  1    wreg      unsigned char 
  1075 ;; Registers used:
  1076 ;;		wreg, fsr2l, fsr2h, status,2, status,0, tblptrl, tblptrh, tblptru, cstack
  1077 ;; Tracked objects:
  1078 ;;		On entry : 0/0
  1079 ;;		On exit  : 0/0
  1080 ;;		Unchanged: 0/0
  1081 ;; Data sizes:     COMRAM   BANK0   BANK1   BANK2   BANK3   BANK4   BANK5   BANK6   BANK7   BANK8   BANK9  BANK10  BANK1
      +1  BANK12  BANK13  BANK14  BANK15
  1082 ;;      Params:         0       0       0       0       0       0       0       0       0       0       0       0       
      +0       0       0       0       0
  1083 ;;      Locals:         4       0       0       0       0       0       0       0       0       0       0       0       
      +0       0       0       0       0
  1084 ;;      Temps:          1       0       0       0       0       0       0       0       0       0       0       0       
      +0       0       0       0       0
  1085 ;;      Totals:         5       0       0       0       0       0       0       0       0       0       0       0       
      +0       0       0       0       0
  1086 ;;Total ram usage:        5 bytes
  1087 ;; Hardware stack levels used:    1
  1088 ;; Hardware stack levels required when called:    3
  1089 ;; This function calls:
  1090 ;;		_CLR_Buf
  1091 ;;		_UART1_Send_Command
  1092 ;; This function is called by:
  1093 ;;		_call_phone_num
  1094 ;; This function uses a non-reentrant model
  1095 ;;
  1096                           
  1097                           	psect	text2
  1098  00127C                     __ptext2:
  1099                           	callstack 0
  1100  00127C                     _Wait_CREG:
  1101                           	callstack 26
  1102                           
  1103                           ;incstack = 0
  1104                           ;Wait_CREG@query_times stored from wreg
  1105  00127C  6E05               	movwf	Wait_CREG@query_times^0,c
  1106  00127E                     
  1107                           ;./gsmSim800l.h: 55: u8 Wait_CREG(u8 query_times);./gsmSim800l.h: 56: {;./gsmSim800l.h: 
      +                          57:  u8 i;;./gsmSim800l.h: 58:  u8 k;;./gsmSim800l.h: 59:  u8 j = 0;
  1108  00127E  0E00               	movlw	0
  1109  001280  6E07               	movwf	Wait_CREG@j^0,c
  1110                           
  1111                           ;./gsmSim800l.h: 60:  i = 0;
  1112  001282  0E00               	movlw	0
  1113  001284  6E06               	movwf	Wait_CREG@i^0,c
  1114  001286                     
  1115                           ;./gsmSim800l.h: 61:  CLR_Buf();
  1116  001286  ECF2  F00C         	call	_CLR_Buf	;wreg free
  1117                           
  1118                           ;./gsmSim800l.h: 62:  while(i == 0)
  1119  00128A  EF05  F00A         	goto	l1406
  1120  00128E                     l1358:
  1121                           
  1122                           ;./gsmSim800l.h: 63:  {;./gsmSim800l.h: 65:   UART1_Send_Command("AT+CREG?");
  1123  00128E  0E84               	movlw	low STR_2
  1124  001290  6E02               	movwf	UART1_Send_Command@s^0,c
  1125  001292  0E10               	movlw	high STR_2
  1126  001294  6E03               	movwf	(UART1_Send_Command@s+1)^0,c
  1127  001296  EC1E  F00C         	call	_UART1_Send_Command	;wreg free
  1128  00129A                     
  1129                           ;./gsmSim800l.h: 66:   _delay((unsigned long)((100)*(4000000/4000.0)));
  1130  00129A  0E82               	movlw	130
  1131  00129C  6E04               	movwf	??_Wait_CREG^0,c
  1132  00129E  0EDE               	movlw	222
  1133  0012A0                     u1147:
  1134  0012A0  2EE8               	decfsz	wreg,f,c
  1135  0012A2  D7FE               	bra	u1147
  1136  0012A4  2E04               	decfsz	??_Wait_CREG^0,f,c
  1137  0012A6  D7FC               	bra	u1147
  1138  0012A8                     
  1139                           ;./gsmSim800l.h: 68:   for(k=0;k<70;k++)
  1140  0012A8  0E00               	movlw	0
  1141  0012AA  6E08               	movwf	Wait_CREG@k^0,c
  1142  0012AC                     l1368:
  1143                           
  1144                           ;./gsmSim800l.h: 69:   {;./gsmSim800l.h: 70:    if((Uart1_Buf[k] == '+')&&(Uart1_Buf[k+1
      +                          ] == 'C')&&(Uart1_Buf[k+2] == 'R')&&(Uart1_Buf[k+3] == 'E')&&(Uart1_Buf[k+4] == 'G')&&(U
      +                          art1_Buf[k+5] == ':'))
  1145  0012AC  0E60               	movlw	low _Uart1_Buf
  1146  0012AE  2408               	addwf	Wait_CREG@k^0,w,c
  1147  0012B0  6ED9               	movwf	fsr2l,c
  1148  0012B2  6ADA               	clrf	fsr2h,c
  1149  0012B4  0E00               	movlw	high _Uart1_Buf
  1150  0012B6  22DA               	addwfc	fsr2h,f,c
  1151  0012B8  0E2B               	movlw	43
  1152  0012BA  18DE               	xorwf	postinc2,w,c
  1153  0012BC  A4D8               	btfss	status,2,c
  1154  0012BE  EF63  F009         	goto	u721
  1155  0012C2  EF65  F009         	goto	u720
  1156  0012C6                     u721:
  1157  0012C6  EFEF  F009         	goto	l1394
  1158  0012CA                     u720:
  1159  0012CA  0E61               	movlw	low (_Uart1_Buf+1)
  1160  0012CC  2408               	addwf	Wait_CREG@k^0,w,c
  1161  0012CE  6ED9               	movwf	fsr2l,c
  1162  0012D0  6ADA               	clrf	fsr2h,c
  1163  0012D2  0E00               	movlw	high (_Uart1_Buf+1)
  1164  0012D4  22DA               	addwfc	fsr2h,f,c
  1165  0012D6  0E43               	movlw	67
  1166  0012D8  18DE               	xorwf	postinc2,w,c
  1167  0012DA  A4D8               	btfss	status,2,c
  1168  0012DC  EF72  F009         	goto	u731
  1169  0012E0  EF74  F009         	goto	u730
  1170  0012E4                     u731:
  1171  0012E4  EFEF  F009         	goto	l1394
  1172  0012E8                     u730:
  1173  0012E8  0E62               	movlw	low (_Uart1_Buf+2)
  1174  0012EA  2408               	addwf	Wait_CREG@k^0,w,c
  1175  0012EC  6ED9               	movwf	fsr2l,c
  1176  0012EE  6ADA               	clrf	fsr2h,c
  1177  0012F0  0E00               	movlw	high (_Uart1_Buf+2)
  1178  0012F2  22DA               	addwfc	fsr2h,f,c
  1179  0012F4  0E52               	movlw	82
  1180  0012F6  18DE               	xorwf	postinc2,w,c
  1181  0012F8  A4D8               	btfss	status,2,c
  1182  0012FA  EF81  F009         	goto	u741
  1183  0012FE  EF83  F009         	goto	u740
  1184  001302                     u741:
  1185  001302  EFEF  F009         	goto	l1394
  1186  001306                     u740:
  1187  001306  0E63               	movlw	low (_Uart1_Buf+3)
  1188  001308  2408               	addwf	Wait_CREG@k^0,w,c
  1189  00130A  6ED9               	movwf	fsr2l,c
  1190  00130C  6ADA               	clrf	fsr2h,c
  1191  00130E  0E00               	movlw	high (_Uart1_Buf+3)
  1192  001310  22DA               	addwfc	fsr2h,f,c
  1193  001312  0E45               	movlw	69
  1194  001314  18DE               	xorwf	postinc2,w,c
  1195  001316  A4D8               	btfss	status,2,c
  1196  001318  EF90  F009         	goto	u751
  1197  00131C  EF92  F009         	goto	u750
  1198  001320                     u751:
  1199  001320  EFEF  F009         	goto	l1394
  1200  001324                     u750:
  1201  001324  0E64               	movlw	low (_Uart1_Buf+4)
  1202  001326  2408               	addwf	Wait_CREG@k^0,w,c
  1203  001328  6ED9               	movwf	fsr2l,c
  1204  00132A  6ADA               	clrf	fsr2h,c
  1205  00132C  0E00               	movlw	high (_Uart1_Buf+4)
  1206  00132E  22DA               	addwfc	fsr2h,f,c
  1207  001330  0E47               	movlw	71
  1208  001332  18DE               	xorwf	postinc2,w,c
  1209  001334  A4D8               	btfss	status,2,c
  1210  001336  EF9F  F009         	goto	u761
  1211  00133A  EFA1  F009         	goto	u760
  1212  00133E                     u761:
  1213  00133E  EFEF  F009         	goto	l1394
  1214  001342                     u760:
  1215  001342  0E65               	movlw	low (_Uart1_Buf+5)
  1216  001344  2408               	addwf	Wait_CREG@k^0,w,c
  1217  001346  6ED9               	movwf	fsr2l,c
  1218  001348  6ADA               	clrf	fsr2h,c
  1219  00134A  0E00               	movlw	high (_Uart1_Buf+5)
  1220  00134C  22DA               	addwfc	fsr2h,f,c
  1221  00134E  0E3A               	movlw	58
  1222  001350  18DE               	xorwf	postinc2,w,c
  1223  001352  A4D8               	btfss	status,2,c
  1224  001354  EFAE  F009         	goto	u771
  1225  001358  EFB0  F009         	goto	u770
  1226  00135C                     u771:
  1227  00135C  EFEF  F009         	goto	l1394
  1228  001360                     u770:
  1229  001360                     
  1230                           ;./gsmSim800l.h: 71:    {;./gsmSim800l.h: 73:     if(((Uart1_Buf[k+7] == '1')||((Uart1_B
      +                          uf[k+7] == '0')))&&((Uart1_Buf[k+9] == '1')||(Uart1_Buf[k+9] == '5')))
  1231  001360  0E67               	movlw	low (_Uart1_Buf+7)
  1232  001362  2408               	addwf	Wait_CREG@k^0,w,c
  1233  001364  6ED9               	movwf	fsr2l,c
  1234  001366  6ADA               	clrf	fsr2h,c
  1235  001368  0E00               	movlw	high (_Uart1_Buf+7)
  1236  00136A  22DA               	addwfc	fsr2h,f,c
  1237  00136C  0E31               	movlw	49
  1238  00136E  18DE               	xorwf	postinc2,w,c
  1239  001370  B4D8               	btfsc	status,2,c
  1240  001372  EFBD  F009         	goto	u781
  1241  001376  EFBF  F009         	goto	u780
  1242  00137A                     u781:
  1243  00137A  EFCE  F009         	goto	l1384
  1244  00137E                     u780:
  1245  00137E  0E67               	movlw	low (_Uart1_Buf+7)
  1246  001380  2408               	addwf	Wait_CREG@k^0,w,c
  1247  001382  6ED9               	movwf	fsr2l,c
  1248  001384  6ADA               	clrf	fsr2h,c
  1249  001386  0E00               	movlw	high (_Uart1_Buf+7)
  1250  001388  22DA               	addwfc	fsr2h,f,c
  1251  00138A  0E30               	movlw	48
  1252  00138C  18DE               	xorwf	postinc2,w,c
  1253  00138E  A4D8               	btfss	status,2,c
  1254  001390  EFCC  F009         	goto	u791
  1255  001394  EFCE  F009         	goto	u790
  1256  001398                     u791:
  1257  001398  EFEF  F009         	goto	l1394
  1258  00139C                     u790:
  1259  00139C                     l1384:
  1260  00139C  0E69               	movlw	low (_Uart1_Buf+9)
  1261  00139E  2408               	addwf	Wait_CREG@k^0,w,c
  1262  0013A0  6ED9               	movwf	fsr2l,c
  1263  0013A2  6ADA               	clrf	fsr2h,c
  1264  0013A4  0E00               	movlw	high (_Uart1_Buf+9)
  1265  0013A6  22DA               	addwfc	fsr2h,f,c
  1266  0013A8  0E31               	movlw	49
  1267  0013AA  18DE               	xorwf	postinc2,w,c
  1268  0013AC  B4D8               	btfsc	status,2,c
  1269  0013AE  EFDB  F009         	goto	u801
  1270  0013B2  EFDD  F009         	goto	u800
  1271  0013B6                     u801:
  1272  0013B6  EFEC  F009         	goto	l1388
  1273  0013BA                     u800:
  1274  0013BA  0E69               	movlw	low (_Uart1_Buf+9)
  1275  0013BC  2408               	addwf	Wait_CREG@k^0,w,c
  1276  0013BE  6ED9               	movwf	fsr2l,c
  1277  0013C0  6ADA               	clrf	fsr2h,c
  1278  0013C2  0E00               	movlw	high (_Uart1_Buf+9)
  1279  0013C4  22DA               	addwfc	fsr2h,f,c
  1280  0013C6  0E35               	movlw	53
  1281  0013C8  18DE               	xorwf	postinc2,w,c
  1282  0013CA  A4D8               	btfss	status,2,c
  1283  0013CC  EFEA  F009         	goto	u811
  1284  0013D0  EFEC  F009         	goto	u810
  1285  0013D4                     u811:
  1286  0013D4  EFEF  F009         	goto	l1394
  1287  0013D8                     u810:
  1288  0013D8                     l1388:
  1289  0013D8                     
  1290                           ;./gsmSim800l.h: 76:      return 1;
  1291  0013D8  0E01               	movlw	1
  1292  0013DA  EF0F  F00A         	goto	l112
  1293  0013DE                     l1394:
  1294                           
  1295                           ;./gsmSim800l.h: 80:   }
  1296  0013DE  2A08               	incf	Wait_CREG@k^0,f,c
  1297  0013E0  0E45               	movlw	69
  1298  0013E2  6408               	cpfsgt	Wait_CREG@k^0,c
  1299  0013E4  EFF6  F009         	goto	u821
  1300  0013E8  EFF8  F009         	goto	u820
  1301  0013EC                     u821:
  1302  0013EC  EF56  F009         	goto	l1368
  1303  0013F0                     u820:
  1304  0013F0                     
  1305                           ;./gsmSim800l.h: 81:   j++;
  1306  0013F0  2A07               	incf	Wait_CREG@j^0,f,c
  1307  0013F2                     
  1308                           ;./gsmSim800l.h: 82:   if(j > query_times)
  1309  0013F2  5007               	movf	Wait_CREG@j^0,w,c
  1310  0013F4  5C05               	subwf	Wait_CREG@query_times^0,w,c
  1311  0013F6  B0D8               	btfsc	status,0,c
  1312  0013F8  EF00  F00A         	goto	u831
  1313  0013FC  EF02  F00A         	goto	u830
  1314  001400                     u831:
  1315  001400  EF05  F00A         	goto	l1406
  1316  001404                     u830:
  1317  001404                     l1402:
  1318                           
  1319                           ;./gsmSim800l.h: 83:   {;./gsmSim800l.h: 84:    return 0;
  1320  001404  0E00               	movlw	0
  1321  001406  EF0F  F00A         	goto	l112
  1322  00140A                     l1406:
  1323                           
  1324                           ;./gsmSim800l.h: 62:  while(i == 0)
  1325  00140A  5006               	movf	Wait_CREG@i^0,w,c
  1326  00140C  B4D8               	btfsc	status,2,c
  1327  00140E  EF0B  F00A         	goto	u841
  1328  001412  EF0D  F00A         	goto	u840
  1329  001416                     u841:
  1330  001416  EF47  F009         	goto	l1358
  1331  00141A                     u840:
  1332  00141A  EF02  F00A         	goto	l1402
  1333  00141E                     l112:
  1334  00141E  0012               	return		;funcret
  1335  001420                     __end_of_Wait_CREG:
  1336                           	callstack 0
  1337                           
  1338 ;; *************** function _UART1_Send_AT_Command *****************
  1339 ;; Defined at:
  1340 ;;		line 99 in file "./gsmSim800l.h"
  1341 ;; Parameters:    Size  Location     Type
  1342 ;;  b               2   19[COMRAM] PTR unsigned char 
  1343 ;;		 -> STR_5(9), STR_3(3), STR_1(18), 
  1344 ;;  a               2   21[COMRAM] PTR unsigned char 
  1345 ;;		 -> STR_7(3), STR_6(6), STR_4(3), 
  1346 ;;  wait_time       1   23[COMRAM] unsigned char 
  1347 ;;  interval_tim    2   24[COMRAM] int 
  1348 ;; Auto vars:     Size  Location     Type
  1349 ;;  i               1   26[COMRAM] unsigned char 
  1350 ;; Return value:  Size  Location     Type
  1351 ;;                  1    wreg      unsigned char 
  1352 ;; Registers used:
  1353 ;;		wreg, fsr2l, fsr2h, status,2, status,0, tblptrl, tblptrh, tblptru, cstack
  1354 ;; Tracked objects:
  1355 ;;		On entry : 0/0
  1356 ;;		On exit  : 0/0
  1357 ;;		Unchanged: 0/0
  1358 ;; Data sizes:     COMRAM   BANK0   BANK1   BANK2   BANK3   BANK4   BANK5   BANK6   BANK7   BANK8   BANK9  BANK10  BANK1
      +1  BANK12  BANK13  BANK14  BANK15
  1359 ;;      Params:         7       0       0       0       0       0       0       0       0       0       0       0       
      +0       0       0       0       0
  1360 ;;      Locals:         1       0       0       0       0       0       0       0       0       0       0       0       
      +0       0       0       0       0
  1361 ;;      Temps:          0       0       0       0       0       0       0       0       0       0       0       0       
      +0       0       0       0       0
  1362 ;;      Totals:         8       0       0       0       0       0       0       0       0       0       0       0       
      +0       0       0       0       0
  1363 ;;Total ram usage:        8 bytes
  1364 ;; Hardware stack levels used:    1
  1365 ;; Hardware stack levels required when called:    4
  1366 ;; This function calls:
  1367 ;;		_CLR_Buf
  1368 ;;		_Find
  1369 ;;		_UART1_Send_Command
  1370 ;;		_delay_ms
  1371 ;; This function is called by:
  1372 ;;		_call_phone_num
  1373 ;; This function uses a non-reentrant model
  1374 ;;
  1375                           
  1376                           	psect	text3
  1377  001786                     __ptext3:
  1378                           	callstack 0
  1379  001786                     _UART1_Send_AT_Command:
  1380                           	callstack 25
  1381  001786                     
  1382                           ;./gsmSim800l.h: 99: u8 UART1_Send_AT_Command(u8 *b,u8 *a,u8 wait_time,u16 interval_time
      +                          );./gsmSim800l.h: 100: {;./gsmSim800l.h: 101:  u8 i;;./gsmSim800l.h: 103:  CLR_Buf();
  1383  001786  ECF2  F00C         	call	_CLR_Buf	;wreg free
  1384  00178A                     
  1385                           ;./gsmSim800l.h: 104:  i = 0;
  1386  00178A  0E00               	movlw	0
  1387  00178C  6E1B               	movwf	UART1_Send_AT_Command@i^0,c
  1388                           
  1389                           ;./gsmSim800l.h: 105:  while(i < wait_time)
  1390  00178E  EFE9  F00B         	goto	l1430
  1391  001792                     l1416:
  1392                           
  1393                           ;./gsmSim800l.h: 106:  {;./gsmSim800l.h: 107:   CLR_Buf();
  1394  001792  ECF2  F00C         	call	_CLR_Buf	;wreg free
  1395  001796                     
  1396                           ;./gsmSim800l.h: 108:         UART1_Send_Command(b);
  1397  001796  C014  F002         	movff	UART1_Send_AT_Command@b,UART1_Send_Command@s
  1398  00179A  C015  F003         	movff	UART1_Send_AT_Command@b+1,UART1_Send_Command@s+1
  1399  00179E  EC1E  F00C         	call	_UART1_Send_Command	;wreg free
  1400  0017A2                     
  1401                           ;./gsmSim800l.h: 109:   delay_ms(interval_time);
  1402  0017A2  C019  F001         	movff	UART1_Send_AT_Command@interval_time,delay_ms@ms
  1403  0017A6  C01A  F002         	movff	UART1_Send_AT_Command@interval_time+1,delay_ms@ms+1
  1404  0017AA  EC91  F00C         	call	_delay_ms	;wreg free
  1405  0017AE                     
  1406                           ;./gsmSim800l.h: 110:         if(Find(a))
  1407  0017AE  C016  F012         	movff	UART1_Send_AT_Command@a,Find@a
  1408  0017B2  C017  F013         	movff	UART1_Send_AT_Command@a+1,Find@a+1
  1409  0017B6  ECD4  F00C         	call	_Find	;wreg free
  1410  0017BA  0900               	iorlw	0
  1411  0017BC  B4D8               	btfsc	status,2,c
  1412  0017BE  EFE3  F00B         	goto	u851
  1413  0017C2  EFE5  F00B         	goto	u850
  1414  0017C6                     u851:
  1415  0017C6  EFE8  F00B         	goto	l1428
  1416  0017CA                     u850:
  1417  0017CA                     
  1418                           ;./gsmSim800l.h: 111:   {;./gsmSim800l.h: 112:    return 1;
  1419  0017CA  0E01               	movlw	1
  1420  0017CC  EFF3  F00B         	goto	l126
  1421  0017D0                     l1428:
  1422                           
  1423                           ;./gsmSim800l.h: 114:   i++;
  1424  0017D0  2A1B               	incf	UART1_Send_AT_Command@i^0,f,c
  1425  0017D2                     l1430:
  1426                           
  1427                           ;./gsmSim800l.h: 105:  while(i < wait_time)
  1428  0017D2  5018               	movf	UART1_Send_AT_Command@wait_time^0,w,c
  1429  0017D4  5C1B               	subwf	UART1_Send_AT_Command@i^0,w,c
  1430  0017D6  A0D8               	btfss	status,0,c
  1431  0017D8  EFF0  F00B         	goto	u861
  1432  0017DC  EFF2  F00B         	goto	u860
  1433  0017E0                     u861:
  1434  0017E0  EFC9  F00B         	goto	l1416
  1435  0017E4                     u860:
  1436  0017E4                     
  1437                           ;./gsmSim800l.h: 117:  return 0;
  1438  0017E4  0E00               	movlw	0
  1439  0017E6                     l126:
  1440  0017E6  0012               	return		;funcret
  1441  0017E8                     __end_of_UART1_Send_AT_Command:
  1442                           	callstack 0
  1443                           
  1444 ;; *************** function _delay_ms *****************
  1445 ;; Defined at:
  1446 ;;		line 91 in file "./gsmSim800l.h"
  1447 ;; Parameters:    Size  Location     Type
  1448 ;;  ms              2    0[COMRAM] int 
  1449 ;; Auto vars:     Size  Location     Type
  1450 ;;  i               2    3[COMRAM] int 
  1451 ;; Return value:  Size  Location     Type
  1452 ;;                  1    wreg      void 
  1453 ;; Registers used:
  1454 ;;		wreg, status,2, status,0
  1455 ;; Tracked objects:
  1456 ;;		On entry : 0/0
  1457 ;;		On exit  : 0/0
  1458 ;;		Unchanged: 0/0
  1459 ;; Data sizes:     COMRAM   BANK0   BANK1   BANK2   BANK3   BANK4   BANK5   BANK6   BANK7   BANK8   BANK9  BANK10  BANK1
      +1  BANK12  BANK13  BANK14  BANK15
  1460 ;;      Params:         2       0       0       0       0       0       0       0       0       0       0       0       
      +0       0       0       0       0
  1461 ;;      Locals:         2       0       0       0       0       0       0       0       0       0       0       0       
      +0       0       0       0       0
  1462 ;;      Temps:          1       0       0       0       0       0       0       0       0       0       0       0       
      +0       0       0       0       0
  1463 ;;      Totals:         5       0       0       0       0       0       0       0       0       0       0       0       
      +0       0       0       0       0
  1464 ;;Total ram usage:        5 bytes
  1465 ;; Hardware stack levels used:    1
  1466 ;; Hardware stack levels required when called:    1
  1467 ;; This function calls:
  1468 ;;		Nothing
  1469 ;; This function is called by:
  1470 ;;		_UART1_Send_AT_Command
  1471 ;; This function uses a non-reentrant model
  1472 ;;
  1473                           
  1474                           	psect	text4
  1475  001922                     __ptext4:
  1476                           	callstack 0
  1477  001922                     _delay_ms:
  1478                           	callstack 27
  1479  001922                     
  1480                           ;./gsmSim800l.h: 91: void delay_ms(u16 ms);./gsmSim800l.h: 92: {;./gsmSim800l.h: 93:    
      +                           int i = 0;
  1481  001922  0E00               	movlw	0
  1482  001924  6E05               	movwf	(delay_ms@i+1)^0,c
  1483  001926  0E00               	movlw	0
  1484  001928  6E04               	movwf	delay_ms@i^0,c
  1485                           
  1486                           ;./gsmSim800l.h: 94:     for(i=0;i<ms;i++)
  1487  00192A  0E00               	movlw	0
  1488  00192C  6E05               	movwf	(delay_ms@i+1)^0,c
  1489  00192E  0E00               	movlw	0
  1490  001930  6E04               	movwf	delay_ms@i^0,c
  1491  001932  EFA5  F00C         	goto	l117
  1492  001936                     l1350:
  1493                           
  1494                           ;./gsmSim800l.h: 95:     _delay((unsigned long)((20)*(4000000/4000.0)));
  1495  001936  0E1A               	movlw	26
  1496  001938  6E03               	movwf	??_delay_ms^0,c
  1497  00193A  0EF8               	movlw	248
  1498  00193C                     u1157:
  1499  00193C  2EE8               	decfsz	wreg,f,c
  1500  00193E  D7FE               	bra	u1157
  1501  001940  2E03               	decfsz	??_delay_ms^0,f,c
  1502  001942  D7FC               	bra	u1157
  1503  001944  D000               	nop2	
  1504  001946  4A04               	infsnz	delay_ms@i^0,f,c
  1505  001948  2A05               	incf	(delay_ms@i+1)^0,f,c
  1506  00194A                     l117:
  1507  00194A  5001               	movf	delay_ms@ms^0,w,c
  1508  00194C  5C04               	subwf	delay_ms@i^0,w,c
  1509  00194E  5005               	movf	(delay_ms@i+1)^0,w,c
  1510  001950  0A80               	xorlw	128
  1511  001952  6E03               	movwf	??_delay_ms^0,c
  1512  001954  5002               	movf	(delay_ms@ms+1)^0,w,c
  1513  001956  0A80               	xorlw	128
  1514  001958  5803               	subwfb	??_delay_ms^0,w,c
  1515  00195A  A0D8               	btfss	status,0,c
  1516  00195C  EFB2  F00C         	goto	u711
  1517  001960  EFB4  F00C         	goto	u710
  1518  001964                     u711:
  1519  001964  EF9B  F00C         	goto	l1350
  1520  001968                     u710:
  1521  001968  0012               	return		;funcret
  1522  00196A                     __end_of_delay_ms:
  1523                           	callstack 0
  1524                           
  1525 ;; *************** function _UART1_Send_Command *****************
  1526 ;; Defined at:
  1527 ;;		line 45 in file "./gsmSim800l.h"
  1528 ;; Parameters:    Size  Location     Type
  1529 ;;  s               2    1[COMRAM] PTR unsigned char 
  1530 ;;		 -> STR_5(9), STR_3(3), STR_2(9), STR_1(18), 
  1531 ;; Auto vars:     Size  Location     Type
  1532 ;;		None
  1533 ;; Return value:  Size  Location     Type
  1534 ;;                  1    wreg      void 
  1535 ;; Registers used:
  1536 ;;		wreg, fsr2l, fsr2h, status,2, status,0, tblptrl, tblptrh, tblptru, cstack
  1537 ;; Tracked objects:
  1538 ;;		On entry : 0/0
  1539 ;;		On exit  : 0/0
  1540 ;;		Unchanged: 0/0
  1541 ;; Data sizes:     COMRAM   BANK0   BANK1   BANK2   BANK3   BANK4   BANK5   BANK6   BANK7   BANK8   BANK9  BANK10  BANK1
      +1  BANK12  BANK13  BANK14  BANK15
  1542 ;;      Params:         2       0       0       0       0       0       0       0       0       0       0       0       
      +0       0       0       0       0
  1543 ;;      Locals:         0       0       0       0       0       0       0       0       0       0       0       0       
      +0       0       0       0       0
  1544 ;;      Temps:          0       0       0       0       0       0       0       0       0       0       0       0       
      +0       0       0       0       0
  1545 ;;      Totals:         2       0       0       0       0       0       0       0       0       0       0       0       
      +0       0       0       0       0
  1546 ;;Total ram usage:        2 bytes
  1547 ;; Hardware stack levels used:    1
  1548 ;; Hardware stack levels required when called:    2
  1549 ;; This function calls:
  1550 ;;		_CLR_Buf
  1551 ;;		_UART1_SendData
  1552 ;; This function is called by:
  1553 ;;		_Wait_CREG
  1554 ;;		_UART1_Send_AT_Command
  1555 ;; This function uses a non-reentrant model
  1556 ;;
  1557                           
  1558                           	psect	text5
  1559  00183C                     __ptext5:
  1560                           	callstack 0
  1561  00183C                     _UART1_Send_Command:
  1562                           	callstack 26
  1563  00183C                     
  1564                           ;./gsmSim800l.h: 45: void UART1_Send_Command(char *s);./gsmSim800l.h: 46: {;./gsmSim800l
      +                          .h: 47:  CLR_Buf();
  1565  00183C  ECF2  F00C         	call	_CLR_Buf	;wreg free
  1566                           
  1567                           ;./gsmSim800l.h: 48:  while(*s)
  1568  001840  EF2E  F00C         	goto	l1344
  1569  001844                     l1340:
  1570                           
  1571                           ;./gsmSim800l.h: 49:  {;./gsmSim800l.h: 50:   UART1_SendData(*s++);
  1572  001844  0060  F00B  FFF6   	movff	UART1_Send_Command@s,tblptrl
  1573  00184A  0060  F00F  FFF7   	movff	UART1_Send_Command@s+1,tblptrh
  1574  001850                     	if	0	;tblptru may be non-zero
  1575  001850                     	endif
  1576  001850                     	if	0	;tblptru may be non-zero
  1577  001850                     	endif
  1578  001850  0008               	tblrd		*
  1579  001852  50F5               	movf	tablat,w,c
  1580  001854  EC2A  F00D         	call	_UART1_SendData
  1581  001858  4A02               	infsnz	UART1_Send_Command@s^0,f,c
  1582  00185A  2A03               	incf	(UART1_Send_Command@s+1)^0,f,c
  1583  00185C                     l1344:
  1584                           
  1585                           ;./gsmSim800l.h: 48:  while(*s)
  1586  00185C  0060  F00B  FFF6   	movff	UART1_Send_Command@s,tblptrl
  1587  001862  0060  F00F  FFF7   	movff	UART1_Send_Command@s+1,tblptrh
  1588  001868                     	if	0	;tblptru may be non-zero
  1589  001868                     	endif
  1590  001868                     	if	0	;tblptru may be non-zero
  1591  001868                     	endif
  1592  001868  0008               	tblrd		*
  1593  00186A  50F5               	movf	tablat,w,c
  1594  00186C  0900               	iorlw	0
  1595  00186E  A4D8               	btfss	status,2,c
  1596  001870  EF3C  F00C         	goto	u701
  1597  001874  EF3E  F00C         	goto	u700
  1598  001878                     u701:
  1599  001878  EF22  F00C         	goto	l1340
  1600  00187C                     u700:
  1601  00187C                     
  1602                           ;./gsmSim800l.h: 52:  UART1_SendData(0X0D);UART1_SendData(0X0A);
  1603  00187C  0E0D               	movlw	13
  1604  00187E  EC2A  F00D         	call	_UART1_SendData
  1605  001882  0E0A               	movlw	10
  1606  001884  EC2A  F00D         	call	_UART1_SendData
  1607  001888  0012               	return		;funcret
  1608  00188A                     __end_of_UART1_Send_Command:
  1609                           	callstack 0
  1610                           
  1611 ;; *************** function _Find *****************
  1612 ;; Defined at:
  1613 ;;		line 28 in file "./gsmSim800l.h"
  1614 ;; Parameters:    Size  Location     Type
  1615 ;;  a               2   17[COMRAM] PTR unsigned char 
  1616 ;;		 -> STR_7(3), STR_6(6), STR_4(3), 
  1617 ;; Auto vars:     Size  Location     Type
  1618 ;;		None
  1619 ;; Return value:  Size  Location     Type
  1620 ;;                  1    wreg      unsigned char 
  1621 ;; Registers used:
  1622 ;;		wreg, fsr2l, fsr2h, status,2, status,0, tblptrl, tblptrh, tblptru, cstack
  1623 ;; Tracked objects:
  1624 ;;		On entry : 0/0
  1625 ;;		On exit  : 0/0
  1626 ;;		Unchanged: 0/0
  1627 ;; Data sizes:     COMRAM   BANK0   BANK1   BANK2   BANK3   BANK4   BANK5   BANK6   BANK7   BANK8   BANK9  BANK10  BANK1
      +1  BANK12  BANK13  BANK14  BANK15
  1628 ;;      Params:         2       0       0       0       0       0       0       0       0       0       0       0       
      +0       0       0       0       0
  1629 ;;      Locals:         0       0       0       0       0       0       0       0       0       0       0       0       
      +0       0       0       0       0
  1630 ;;      Temps:          0       0       0       0       0       0       0       0       0       0       0       0       
      +0       0       0       0       0
  1631 ;;      Totals:         2       0       0       0       0       0       0       0       0       0       0       0       
      +0       0       0       0       0
  1632 ;;Total ram usage:        2 bytes
  1633 ;; Hardware stack levels used:    1
  1634 ;; Hardware stack levels required when called:    3
  1635 ;; This function calls:
  1636 ;;		_strstr
  1637 ;; This function is called by:
  1638 ;;		_UART1_Send_AT_Command
  1639 ;; This function uses a non-reentrant model
  1640 ;;
  1641                           
  1642                           	psect	text6
  1643  0019A8                     __ptext6:
  1644                           	callstack 0
  1645  0019A8                     _Find:
  1646                           	callstack 25
  1647  0019A8                     
  1648                           ;./gsmSim800l.h: 28: u8 Find(u8 *a);./gsmSim800l.h: 29: {;./gsmSim800l.h: 30:  PIE3bits.
      +                          U1IE = 0;
  1649  0019A8  0139               	movlb	57	; () banked
  1650  0019AA  9D93               	bcf	147,6,b	;volatile
  1651  0019AC                     
  1652                           ; BSR set to: 57
  1653                           ;./gsmSim800l.h: 32:  if(strstr(Uart1_Buf,a)!=((void*)0))
  1654  0019AC  0E60               	movlw	low _Uart1_Buf
  1655  0019AE  6E0C               	movwf	strstr@h^0,c
  1656  0019B0  0E00               	movlw	high _Uart1_Buf
  1657  0019B2  6E0D               	movwf	(strstr@h+1)^0,c
  1658  0019B4  C012  F00E         	movff	Find@a,strstr@n
  1659  0019B8  C013  F00F         	movff	Find@a+1,strstr@n+1
  1660  0019BC  EC09  F00B         	call	_strstr	;wreg free
  1661  0019C0  500C               	movf	?_strstr^0,w,c
  1662  0019C2  100D               	iorwf	(?_strstr+1)^0,w,c
  1663  0019C4  B4D8               	btfsc	status,2,c
  1664  0019C6  EFE7  F00C         	goto	u691
  1665  0019CA  EFE9  F00C         	goto	u690
  1666  0019CE                     u691:
  1667  0019CE  EFEE  F00C         	goto	l91
  1668  0019D2                     u690:
  1669  0019D2                     
  1670                           ;./gsmSim800l.h: 33:  {;./gsmSim800l.h: 34:   PIE3bits.U1IE = 1;
  1671  0019D2  0139               	movlb	57	; () banked
  1672  0019D4  8D93               	bsf	147,6,b	;volatile
  1673  0019D6                     
  1674                           ; BSR set to: 57
  1675                           ;./gsmSim800l.h: 35:   return 1;
  1676  0019D6  0E01               	movlw	1
  1677  0019D8  EFF1  F00C         	goto	l92
  1678  0019DC                     l91:
  1679                           
  1680                           ;./gsmSim800l.h: 38:  {;./gsmSim800l.h: 39:   PIE3bits.U1IE = 1;
  1681  0019DC  0139               	movlb	57	; () banked
  1682  0019DE  8D93               	bsf	147,6,b	;volatile
  1683  0019E0                     
  1684                           ; BSR set to: 57
  1685                           ;./gsmSim800l.h: 40:   return 0;
  1686  0019E0  0E00               	movlw	0
  1687  0019E2                     l92:
  1688                           
  1689                           ; BSR set to: 57
  1690  0019E2  0012               	return		;funcret
  1691  0019E4                     __end_of_Find:
  1692                           	callstack 0
  1693                           
  1694 ;; *************** function _strstr *****************
  1695 ;; Defined at:
  1696 ;;		line 4 in file "C:\Program Files\Microchip\xc8\v2.31\pic\sources\c99\common\strstr.c"
  1697 ;; Parameters:    Size  Location     Type
  1698 ;;  h               2   11[COMRAM] PTR const unsigned char 
  1699 ;;		 -> NULL(0), Uart1_Buf(70), 
  1700 ;;  n               2   13[COMRAM] PTR const unsigned char 
  1701 ;;		 -> STR_7(3), STR_6(6), STR_4(3), 
  1702 ;; Auto vars:     Size  Location     Type
  1703 ;;  nl              2   15[COMRAM] unsigned int 
  1704 ;; Return value:  Size  Location     Type
  1705 ;;                  2   11[COMRAM] PTR unsigned char 
  1706 ;; Registers used:
  1707 ;;		wreg, fsr2l, fsr2h, status,2, status,0, tblptrl, tblptrh, tblptru, cstack
  1708 ;; Tracked objects:
  1709 ;;		On entry : 0/0
  1710 ;;		On exit  : 0/0
  1711 ;;		Unchanged: 0/0
  1712 ;; Data sizes:     COMRAM   BANK0   BANK1   BANK2   BANK3   BANK4   BANK5   BANK6   BANK7   BANK8   BANK9  BANK10  BANK1
      +1  BANK12  BANK13  BANK14  BANK15
  1713 ;;      Params:         4       0       0       0       0       0       0       0       0       0       0       0       
      +0       0       0       0       0
  1714 ;;      Locals:         2       0       0       0       0       0       0       0       0       0       0       0       
      +0       0       0       0       0
  1715 ;;      Temps:          0       0       0       0       0       0       0       0       0       0       0       0       
      +0       0       0       0       0
  1716 ;;      Totals:         6       0       0       0       0       0       0       0       0       0       0       0       
      +0       0       0       0       0
  1717 ;;Total ram usage:        6 bytes
  1718 ;; Hardware stack levels used:    1
  1719 ;; Hardware stack levels required when called:    2
  1720 ;; This function calls:
  1721 ;;		_strchr
  1722 ;;		_strlen
  1723 ;;		_strncmp
  1724 ;; This function is called by:
  1725 ;;		_Find
  1726 ;; This function uses a non-reentrant model
  1727 ;;
  1728                           
  1729                           	psect	text7
  1730  001612                     __ptext7:
  1731                           	callstack 0
  1732  001612                     _strstr:
  1733                           	callstack 25
  1734  001612  500E               	movf	strstr@n^0,w,c
  1735  001614  100F               	iorwf	(strstr@n+1)^0,w,c
  1736  001616  B4D8               	btfsc	status,2,c
  1737  001618  EF10  F00B         	goto	u651
  1738  00161C  EF12  F00B         	goto	u650
  1739  001620                     u651:
  1740  001620  EF68  F00B         	goto	l1318
  1741  001624                     u650:
  1742  001624  C00E  F001         	movff	strstr@n,strlen@s
  1743  001628  C00F  F002         	movff	strstr@n+1,strlen@s+1
  1744  00162C  ECB5  F00C         	call	_strlen	;wreg free
  1745  001630  C001  F010         	movff	?_strlen,strstr@nl
  1746  001634  C002  F011         	movff	?_strlen+1,strstr@nl+1
  1747  001638  EF51  F00B         	goto	l1314
  1748  00163C                     l1306:
  1749  00163C  C00C  F001         	movff	strstr@h,strncmp@_l
  1750  001640  C00D  F002         	movff	strstr@h+1,strncmp@_l+1
  1751  001644  C00E  F003         	movff	strstr@n,strncmp@_r
  1752  001648  C00F  F004         	movff	strstr@n+1,strncmp@_r+1
  1753  00164C  C010  F005         	movff	strstr@nl,strncmp@n
  1754  001650  C011  F006         	movff	strstr@nl+1,strncmp@n+1
  1755  001654  EC92  F00A         	call	_strncmp	;wreg free
  1756  001658  5001               	movf	?_strncmp^0,w,c
  1757  00165A  1002               	iorwf	(?_strncmp+1)^0,w,c
  1758  00165C  A4D8               	btfss	status,2,c
  1759  00165E  EF33  F00B         	goto	u661
  1760  001662  EF35  F00B         	goto	u660
  1761  001666                     u661:
  1762  001666  EF3B  F00B         	goto	l1312
  1763  00166A                     u660:
  1764  00166A  C00C  F00C         	movff	strstr@h,?_strstr
  1765  00166E  C00D  F00D         	movff	strstr@h+1,?_strstr+1
  1766  001672  EF6C  F00B         	goto	l860
  1767  001676                     l1312:
  1768  001676  0E01               	movlw	1
  1769  001678  240C               	addwf	strstr@h^0,w,c
  1770  00167A  6E01               	movwf	strchr@s^0,c
  1771  00167C  0E00               	movlw	0
  1772  00167E  200D               	addwfc	(strstr@h+1)^0,w,c
  1773  001680  6E02               	movwf	(strchr@s+1)^0,c
  1774  001682  0060  F03B  FFF6   	movff	strstr@n,tblptrl
  1775  001688  0060  F03F  FFF7   	movff	strstr@n+1,tblptrh
  1776  00168E                     	if	0	;tblptru may be non-zero
  1777  00168E                     	endif
  1778  00168E                     	if	0	;tblptru may be non-zero
  1779  00168E                     	endif
  1780  00168E  0008               	tblrd		*
  1781  001690  50F5               	movf	tablat,w,c
  1782  001692  6E03               	movwf	strchr@c^0,c
  1783  001694  6A04               	clrf	(strchr@c+1)^0,c
  1784  001696  ECF4  F00B         	call	_strchr	;wreg free
  1785  00169A  C001  F00C         	movff	?_strchr,strstr@h
  1786  00169E  C002  F00D         	movff	?_strchr+1,strstr@h+1
  1787  0016A2                     l1314:
  1788  0016A2  500C               	movf	strstr@h^0,w,c
  1789  0016A4  100D               	iorwf	(strstr@h+1)^0,w,c
  1790  0016A6  B4D8               	btfsc	status,2,c
  1791  0016A8  EF58  F00B         	goto	u671
  1792  0016AC  EF5A  F00B         	goto	u670
  1793  0016B0                     u671:
  1794  0016B0  EF68  F00B         	goto	l1318
  1795  0016B4                     u670:
  1796  0016B4  0060  F033  FFD9   	movff	strstr@h,fsr2l
  1797  0016BA  0060  F037  FFDA   	movff	strstr@h+1,fsr2h
  1798  0016C0  50DF               	movf	indf2,w,c
  1799  0016C2  A4D8               	btfss	status,2,c
  1800  0016C4  EF66  F00B         	goto	u681
  1801  0016C8  EF68  F00B         	goto	u680
  1802  0016CC                     u681:
  1803  0016CC  EF1E  F00B         	goto	l1306
  1804  0016D0                     u680:
  1805  0016D0                     l1318:
  1806  0016D0  0E00               	movlw	0
  1807  0016D2  6E0C               	movwf	?_strstr^0,c
  1808  0016D4  0E00               	movlw	0
  1809  0016D6  6E0D               	movwf	(?_strstr+1)^0,c
  1810  0016D8                     l860:
  1811  0016D8  0012               	return		;funcret
  1812  0016DA                     __end_of_strstr:
  1813                           	callstack 0
  1814                           
  1815 ;; *************** function _strncmp *****************
  1816 ;; Defined at:
  1817 ;;		line 3 in file "C:\Program Files\Microchip\xc8\v2.31\pic\sources\c99\common\strncmp.c"
  1818 ;; Parameters:    Size  Location     Type
  1819 ;;  _l              2    0[COMRAM] PTR const unsigned char 
  1820 ;;		 -> NULL(0), Uart1_Buf(70), 
  1821 ;;  _r              2    2[COMRAM] PTR const unsigned char 
  1822 ;;		 -> STR_7(3), STR_6(6), STR_4(3), 
  1823 ;;  n               2    4[COMRAM] unsigned int 
  1824 ;; Auto vars:     Size  Location     Type
  1825 ;;  r               2    9[COMRAM] PTR const unsigned char 
  1826 ;;		 -> STR_7(3), STR_6(6), STR_4(3), 
  1827 ;;  l               2    7[COMRAM] PTR const unsigned char 
  1828 ;;		 -> NULL(0), Uart1_Buf(70), 
  1829 ;; Return value:  Size  Location     Type
  1830 ;;                  2    0[COMRAM] int 
  1831 ;; Registers used:
  1832 ;;		wreg, fsr2l, fsr2h, status,2, status,0, tblptrl, tblptrh, tblptru
  1833 ;; Tracked objects:
  1834 ;;		On entry : 0/0
  1835 ;;		On exit  : 0/0
  1836 ;;		Unchanged: 0/0
  1837 ;; Data sizes:     COMRAM   BANK0   BANK1   BANK2   BANK3   BANK4   BANK5   BANK6   BANK7   BANK8   BANK9  BANK10  BANK1
      +1  BANK12  BANK13  BANK14  BANK15
  1838 ;;      Params:         6       0       0       0       0       0       0       0       0       0       0       0       
      +0       0       0       0       0
  1839 ;;      Locals:         4       0       0       0       0       0       0       0       0       0       0       0       
      +0       0       0       0       0
  1840 ;;      Temps:          1       0       0       0       0       0       0       0       0       0       0       0       
      +0       0       0       0       0
  1841 ;;      Totals:        11       0       0       0       0       0       0       0       0       0       0       0       
      +0       0       0       0       0
  1842 ;;Total ram usage:       11 bytes
  1843 ;; Hardware stack levels used:    1
  1844 ;; Hardware stack levels required when called:    1
  1845 ;; This function calls:
  1846 ;;		Nothing
  1847 ;; This function is called by:
  1848 ;;		_strstr
  1849 ;; This function uses a non-reentrant model
  1850 ;;
  1851                           
  1852                           	psect	text8
  1853  001524                     __ptext8:
  1854                           	callstack 0
  1855  001524                     _strncmp:
  1856                           	callstack 25
  1857  001524  C001  F008         	movff	strncmp@_l,strncmp@l
  1858  001528  C002  F009         	movff	strncmp@_l+1,strncmp@l+1
  1859  00152C  C003  F00A         	movff	strncmp@_r,strncmp@r
  1860  001530  C004  F00B         	movff	strncmp@_r+1,strncmp@r+1
  1861  001534  0605               	decf	strncmp@n^0,f,c
  1862  001536  A0D8               	btfss	status,0,c
  1863  001538  0606               	decf	(strncmp@n+1)^0,f,c
  1864  00153A  2805               	incf	strncmp@n^0,w,c
  1865  00153C  E106               	bnz	u561
  1866  00153E  2806               	incf	(strncmp@n+1)^0,w,c
  1867  001540  A4D8               	btfss	status,2,c
  1868  001542  EFA5  F00A         	goto	u561
  1869  001546  EFA7  F00A         	goto	u560
  1870  00154A                     u561:
  1871  00154A  EFB4  F00A         	goto	l1260
  1872  00154E                     u560:
  1873  00154E  0E00               	movlw	0
  1874  001550  6E02               	movwf	(?_strncmp+1)^0,c
  1875  001552  0E00               	movlw	0
  1876  001554  6E01               	movwf	?_strncmp^0,c
  1877  001556  EF08  F00B         	goto	l879
  1878  00155A                     l1258:
  1879  00155A  4A08               	infsnz	strncmp@l^0,f,c
  1880  00155C  2A09               	incf	(strncmp@l+1)^0,f,c
  1881  00155E  4A0A               	infsnz	strncmp@r^0,f,c
  1882  001560  2A0B               	incf	(strncmp@r+1)^0,f,c
  1883  001562  0605               	decf	strncmp@n^0,f,c
  1884  001564  A0D8               	btfss	status,0,c
  1885  001566  0606               	decf	(strncmp@n+1)^0,f,c
  1886  001568                     l1260:
  1887  001568  0060  F023  FFD9   	movff	strncmp@l,fsr2l
  1888  00156E  0060  F027  FFDA   	movff	strncmp@l+1,fsr2h
  1889  001574  50DF               	movf	indf2,w,c
  1890  001576  B4D8               	btfsc	status,2,c
  1891  001578  EFC0  F00A         	goto	u571
  1892  00157C  EFC2  F00A         	goto	u570
  1893  001580                     u571:
  1894  001580  EFF3  F00A         	goto	l1268
  1895  001584                     u570:
  1896  001584  0060  F02B  FFF6   	movff	strncmp@r,tblptrl
  1897  00158A  0060  F02F  FFF7   	movff	strncmp@r+1,tblptrh
  1898  001590                     	if	0	;tblptru may be non-zero
  1899  001590                     	endif
  1900  001590                     	if	0	;tblptru may be non-zero
  1901  001590                     	endif
  1902  001590  0008               	tblrd		*
  1903  001592  50F5               	movf	tablat,w,c
  1904  001594  0900               	iorlw	0
  1905  001596  B4D8               	btfsc	status,2,c
  1906  001598  EFD0  F00A         	goto	u581
  1907  00159C  EFD2  F00A         	goto	u580
  1908  0015A0                     u581:
  1909  0015A0  EFF3  F00A         	goto	l1268
  1910  0015A4                     u580:
  1911  0015A4  5005               	movf	strncmp@n^0,w,c
  1912  0015A6  1006               	iorwf	(strncmp@n+1)^0,w,c
  1913  0015A8  B4D8               	btfsc	status,2,c
  1914  0015AA  EFD9  F00A         	goto	u591
  1915  0015AE  EFDB  F00A         	goto	u590
  1916  0015B2                     u591:
  1917  0015B2  EFF3  F00A         	goto	l1268
  1918  0015B6                     u590:
  1919  0015B6  0060  F023  FFD9   	movff	strncmp@l,fsr2l
  1920  0015BC  0060  F027  FFDA   	movff	strncmp@l+1,fsr2h
  1921  0015C2  50DF               	movf	indf2,w,c
  1922  0015C4  6E07               	movwf	??_strncmp^0,c
  1923  0015C6  0060  F02B  FFF6   	movff	strncmp@r,tblptrl
  1924  0015CC  0060  F02F  FFF7   	movff	strncmp@r+1,tblptrh
  1925  0015D2                     	if	0	;tblptru may be non-zero
  1926  0015D2                     	endif
  1927  0015D2                     	if	0	;tblptru may be non-zero
  1928  0015D2                     	endif
  1929  0015D2  0008               	tblrd		*
  1930  0015D4  50F5               	movf	tablat,w,c
  1931  0015D6  1807               	xorwf	??_strncmp^0,w,c
  1932  0015D8  B4D8               	btfsc	status,2,c
  1933  0015DA  EFF1  F00A         	goto	u601
  1934  0015DE  EFF3  F00A         	goto	u600
  1935  0015E2                     u601:
  1936  0015E2  EFAD  F00A         	goto	l1258
  1937  0015E6                     u600:
  1938  0015E6                     l1268:
  1939  0015E6  0060  F023  FFD9   	movff	strncmp@l,fsr2l
  1940  0015EC  0060  F027  FFDA   	movff	strncmp@l+1,fsr2h
  1941  0015F2  50DF               	movf	indf2,w,c
  1942  0015F4  6E07               	movwf	??_strncmp^0,c
  1943  0015F6  0060  F02B  FFF6   	movff	strncmp@r,tblptrl
  1944  0015FC  0060  F02F  FFF7   	movff	strncmp@r+1,tblptrh
  1945  001602                     	if	0	;tblptru may be non-zero
  1946  001602                     	endif
  1947  001602                     	if	0	;tblptru may be non-zero
  1948  001602                     	endif
  1949  001602  0008               	tblrd		*
  1950  001604  50F5               	movf	tablat,w,c
  1951  001606  5C07               	subwf	??_strncmp^0,w,c
  1952  001608  6E01               	movwf	?_strncmp^0,c
  1953  00160A  6A02               	clrf	(?_strncmp+1)^0,c
  1954  00160C  A0D8               	btfss	status,0,c
  1955  00160E  0602               	decf	(?_strncmp+1)^0,f,c
  1956  001610                     l879:
  1957  001610  0012               	return		;funcret
  1958  001612                     __end_of_strncmp:
  1959                           	callstack 0
  1960                           
  1961 ;; *************** function _strlen *****************
  1962 ;; Defined at:
  1963 ;;		line 5 in file "C:\Program Files\Microchip\xc8\v2.31\pic\sources\c99\common\strlen.c"
  1964 ;; Parameters:    Size  Location     Type
  1965 ;;  s               2    0[COMRAM] PTR const unsigned char 
  1966 ;;		 -> STR_7(3), STR_6(6), STR_4(3), 
  1967 ;; Auto vars:     Size  Location     Type
  1968 ;;  a               2    2[COMRAM] PTR const unsigned char 
  1969 ;;		 -> STR_7(3), STR_6(6), STR_4(3), 
  1970 ;; Return value:  Size  Location     Type
  1971 ;;                  2    0[COMRAM] unsigned int 
  1972 ;; Registers used:
  1973 ;;		wreg, status,2, status,0, tblptrl, tblptrh, tblptru
  1974 ;; Tracked objects:
  1975 ;;		On entry : 0/0
  1976 ;;		On exit  : 0/0
  1977 ;;		Unchanged: 0/0
  1978 ;; Data sizes:     COMRAM   BANK0   BANK1   BANK2   BANK3   BANK4   BANK5   BANK6   BANK7   BANK8   BANK9  BANK10  BANK1
      +1  BANK12  BANK13  BANK14  BANK15
  1979 ;;      Params:         2       0       0       0       0       0       0       0       0       0       0       0       
      +0       0       0       0       0
  1980 ;;      Locals:         2       0       0       0       0       0       0       0       0       0       0       0       
      +0       0       0       0       0
  1981 ;;      Temps:          0       0       0       0       0       0       0       0       0       0       0       0       
      +0       0       0       0       0
  1982 ;;      Totals:         4       0       0       0       0       0       0       0       0       0       0       0       
      +0       0       0       0       0
  1983 ;;Total ram usage:        4 bytes
  1984 ;; Hardware stack levels used:    1
  1985 ;; Hardware stack levels required when called:    1
  1986 ;; This function calls:
  1987 ;;		Nothing
  1988 ;; This function is called by:
  1989 ;;		_strstr
  1990 ;; This function uses a non-reentrant model
  1991 ;;
  1992                           
  1993                           	psect	text9
  1994  00196A                     __ptext9:
  1995                           	callstack 0
  1996  00196A                     _strlen:
  1997                           	callstack 25
  1998  00196A  C001  F003         	movff	strlen@s,strlen@a
  1999  00196E  C002  F004         	movff	strlen@s+1,strlen@a+1
  2000  001972  EFBD  F00C         	goto	l1246
  2001  001976                     l1244:
  2002  001976  4A01               	infsnz	strlen@s^0,f,c
  2003  001978  2A02               	incf	(strlen@s+1)^0,f,c
  2004  00197A                     l1246:
  2005  00197A  0060  F007  FFF6   	movff	strlen@s,tblptrl
  2006  001980  0060  F00B  FFF7   	movff	strlen@s+1,tblptrh
  2007  001986                     	if	0	;tblptru may be non-zero
  2008  001986                     	endif
  2009  001986                     	if	0	;tblptru may be non-zero
  2010  001986                     	endif
  2011  001986  0008               	tblrd		*
  2012  001988  50F5               	movf	tablat,w,c
  2013  00198A  0900               	iorlw	0
  2014  00198C  A4D8               	btfss	status,2,c
  2015  00198E  EFCB  F00C         	goto	u551
  2016  001992  EFCD  F00C         	goto	u550
  2017  001996                     u551:
  2018  001996  EFBB  F00C         	goto	l1244
  2019  00199A                     u550:
  2020  00199A  5003               	movf	strlen@a^0,w,c
  2021  00199C  5C01               	subwf	strlen@s^0,w,c
  2022  00199E  6E01               	movwf	?_strlen^0,c
  2023  0019A0  5004               	movf	(strlen@a+1)^0,w,c
  2024  0019A2  5802               	subwfb	(strlen@s+1)^0,w,c
  2025  0019A4  6E02               	movwf	(?_strlen+1)^0,c
  2026  0019A6  0012               	return		;funcret
  2027  0019A8                     __end_of_strlen:
  2028                           	callstack 0
  2029                           
  2030 ;; *************** function _strchr *****************
  2031 ;; Defined at:
  2032 ;;		line 3 in file "C:\Program Files\Microchip\xc8\v2.31\pic\sources\c99\common\strchr.c"
  2033 ;; Parameters:    Size  Location     Type
  2034 ;;  s               2    0[COMRAM] PTR const unsigned char 
  2035 ;;		 -> NULL(0), Uart1_Buf(70), 
  2036 ;;  c               2    2[COMRAM] int 
  2037 ;; Auto vars:     Size  Location     Type
  2038 ;;		None
  2039 ;; Return value:  Size  Location     Type
  2040 ;;                  2    0[COMRAM] PTR unsigned char 
  2041 ;; Registers used:
  2042 ;;		wreg, fsr2l, fsr2h, status,2, status,0
  2043 ;; Tracked objects:
  2044 ;;		On entry : 0/0
  2045 ;;		On exit  : 0/0
  2046 ;;		Unchanged: 0/0
  2047 ;; Data sizes:     COMRAM   BANK0   BANK1   BANK2   BANK3   BANK4   BANK5   BANK6   BANK7   BANK8   BANK9  BANK10  BANK1
      +1  BANK12  BANK13  BANK14  BANK15
  2048 ;;      Params:         4       0       0       0       0       0       0       0       0       0       0       0       
      +0       0       0       0       0
  2049 ;;      Locals:         0       0       0       0       0       0       0       0       0       0       0       0       
      +0       0       0       0       0
  2050 ;;      Temps:          1       0       0       0       0       0       0       0       0       0       0       0       
      +0       0       0       0       0
  2051 ;;      Totals:         5       0       0       0       0       0       0       0       0       0       0       0       
      +0       0       0       0       0
  2052 ;;Total ram usage:        5 bytes
  2053 ;; Hardware stack levels used:    1
  2054 ;; Hardware stack levels required when called:    1
  2055 ;; This function calls:
  2056 ;;		Nothing
  2057 ;; This function is called by:
  2058 ;;		_strstr
  2059 ;; This function uses a non-reentrant model
  2060 ;;
  2061                           
  2062                           	psect	text10
  2063  0017E8                     __ptext10:
  2064                           	callstack 0
  2065  0017E8                     _strchr:
  2066                           	callstack 25
  2067  0017E8                     l866:
  2068  0017E8  0060  F007  FFD9   	movff	strchr@s,fsr2l
  2069  0017EE  0060  F00B  FFDA   	movff	strchr@s+1,fsr2h
  2070  0017F4  5003               	movf	strchr@c^0,w,c
  2071  0017F6  18DE               	xorwf	postinc2,w,c
  2072  0017F8  A4D8               	btfss	status,2,c
  2073  0017FA  EF01  F00C         	goto	u611
  2074  0017FE  EF03  F00C         	goto	u610
  2075  001802                     u611:
  2076  001802  EF09  F00C         	goto	l1278
  2077  001806                     u610:
  2078  001806  C001  F001         	movff	strchr@s,?_strchr
  2079  00180A  C002  F002         	movff	strchr@s+1,?_strchr+1
  2080  00180E  EF1D  F00C         	goto	l868
  2081  001812                     l1278:
  2082  001812  0060  F007  FFD9   	movff	strchr@s,fsr2l
  2083  001818  0060  F00B  FFDA   	movff	strchr@s+1,fsr2h
  2084  00181E  4A01               	infsnz	strchr@s^0,f,c
  2085  001820  2A02               	incf	(strchr@s+1)^0,f,c
  2086  001822  50DF               	movf	indf2,w,c
  2087  001824  A4D8               	btfss	status,2,c
  2088  001826  EF17  F00C         	goto	u621
  2089  00182A  EF19  F00C         	goto	u620
  2090  00182E                     u621:
  2091  00182E  EFF4  F00B         	goto	l866
  2092  001832                     u620:
  2093  001832  0E00               	movlw	0
  2094  001834  6E01               	movwf	?_strchr^0,c
  2095  001836  0E00               	movlw	0
  2096  001838  6E02               	movwf	(?_strchr+1)^0,c
  2097  00183A                     l868:
  2098  00183A  0012               	return		;funcret
  2099  00183C                     __end_of_strchr:
  2100                           	callstack 0
  2101                           
  2102 ;; *************** function _UART_Initialize *****************
  2103 ;; Defined at:
  2104 ;;		line 34 in file "./UART.h"
  2105 ;; Parameters:    Size  Location     Type
  2106 ;;		None
  2107 ;; Auto vars:     Size  Location     Type
  2108 ;;		None
  2109 ;; Return value:  Size  Location     Type
  2110 ;;                  1    wreg      void 
  2111 ;; Registers used:
  2112 ;;		wreg, status,2
  2113 ;; Tracked objects:
  2114 ;;		On entry : 0/0
  2115 ;;		On exit  : 0/0
  2116 ;;		Unchanged: 0/0
  2117 ;; Data sizes:     COMRAM   BANK0   BANK1   BANK2   BANK3   BANK4   BANK5   BANK6   BANK7   BANK8   BANK9  BANK10  BANK1
      +1  BANK12  BANK13  BANK14  BANK15
  2118 ;;      Params:         0       0       0       0       0       0       0       0       0       0       0       0       
      +0       0       0       0       0
  2119 ;;      Locals:         0       0       0       0       0       0       0       0       0       0       0       0       
      +0       0       0       0       0
  2120 ;;      Temps:          0       0       0       0       0       0       0       0       0       0       0       0       
      +0       0       0       0       0
  2121 ;;      Totals:         0       0       0       0       0       0       0       0       0       0       0       0       
      +0       0       0       0       0
  2122 ;;Total ram usage:        0 bytes
  2123 ;; Hardware stack levels used:    1
  2124 ;; Hardware stack levels required when called:    1
  2125 ;; This function calls:
  2126 ;;		Nothing
  2127 ;; This function is called by:
  2128 ;;		_main
  2129 ;; This function uses a non-reentrant model
  2130 ;;
  2131                           
  2132                           	psect	text11
  2133  001A10                     __ptext11:
  2134                           	callstack 0
  2135  001A10                     _UART_Initialize:
  2136                           	callstack 29
  2137  001A10                     
  2138                           ;./UART.h: 36:     rs232.rx = 0;
  2139  001A10  0E00               	movlw	0
  2140  001A12  6E26               	movwf	_rs232^0,c
  2141                           
  2142                           ;./UART.h: 37:     rs232.tx = 0;
  2143  001A14  0E00               	movlw	0
  2144  001A16  6E27               	movwf	(_rs232+1)^0,c
  2145  001A18                     
  2146                           ;./UART.h: 38:     rs232.isrx = 0;
  2147  001A18  9028               	bcf	(_rs232+2)^0,0,c
  2148                           
  2149                           ;./UART.h: 40:     U1FIFO = 0x00;
  2150  001A1A  0E00               	movlw	0
  2151  001A1C  013D               	movlb	61	; () banked
  2152  001A1E  6FF7               	movwf	247,b	;volatile
  2153                           
  2154                           ;./UART.h: 41:     U1CON0 = 0xB0;
  2155  001A20  0EB0               	movlw	176
  2156  001A22  6FF2               	movwf	242,b	;volatile
  2157                           
  2158                           ;./UART.h: 42:     U1CON1 = 0x80;
  2159  001A24  0E80               	movlw	128
  2160  001A26  6FF3               	movwf	243,b	;volatile
  2161                           
  2162                           ;./UART.h: 47:     U1BRGL = 0x33;
  2163  001A28  0E33               	movlw	51
  2164  001A2A  6FF5               	movwf	245,b	;volatile
  2165                           
  2166                           ;./UART.h: 48:     U1BRGH = 0x00;
  2167  001A2C  0E00               	movlw	0
  2168  001A2E  6FF6               	movwf	246,b	;volatile
  2169  001A30                     
  2170                           ; BSR set to: 61
  2171                           ;./UART.h: 50:     PIE3bits.U1RXIE = 1;
  2172  001A30  0139               	movlb	57	; () banked
  2173  001A32  8793               	bsf	147,3,b	;volatile
  2174  001A34                     
  2175                           ; BSR set to: 57
  2176                           ;./UART.h: 52:     PIE3bits.U1IE = 1;
  2177  001A34  8D93               	bsf	147,6,b	;volatile
  2178  001A36                     
  2179                           ; BSR set to: 57
  2180  001A36  0012               	return		;funcret
  2181  001A38                     __end_of_UART_Initialize:
  2182                           	callstack 0
  2183                           
  2184 ;; *************** function _UART1_Send_Greeting *****************
  2185 ;; Defined at:
  2186 ;;		line 22 in file "./UART.h"
  2187 ;; Parameters:    Size  Location     Type
  2188 ;;  s               2    1[COMRAM] PTR unsigned char 
  2189 ;;		 -> STR_13(22), STR_12(18), STR_11(16), STR_10(8), 
  2190 ;;		 -> STR_9(47), STR_8(10), 
  2191 ;; Auto vars:     Size  Location     Type
  2192 ;;		None
  2193 ;; Return value:  Size  Location     Type
  2194 ;;                  1    wreg      void 
  2195 ;; Registers used:
  2196 ;;		wreg, fsr2l, fsr2h, status,2, status,0, tblptrl, tblptrh, tblptru, cstack
  2197 ;; Tracked objects:
  2198 ;;		On entry : 0/0
  2199 ;;		On exit  : 0/0
  2200 ;;		Unchanged: 0/0
  2201 ;; Data sizes:     COMRAM   BANK0   BANK1   BANK2   BANK3   BANK4   BANK5   BANK6   BANK7   BANK8   BANK9  BANK10  BANK1
      +1  BANK12  BANK13  BANK14  BANK15
  2202 ;;      Params:         2       0       0       0       0       0       0       0       0       0       0       0       
      +0       0       0       0       0
  2203 ;;      Locals:         0       0       0       0       0       0       0       0       0       0       0       0       
      +0       0       0       0       0
  2204 ;;      Temps:          0       0       0       0       0       0       0       0       0       0       0       0       
      +0       0       0       0       0
  2205 ;;      Totals:         2       0       0       0       0       0       0       0       0       0       0       0       
      +0       0       0       0       0
  2206 ;;Total ram usage:        2 bytes
  2207 ;; Hardware stack levels used:    1
  2208 ;; Hardware stack levels required when called:    2
  2209 ;; This function calls:
  2210 ;;		_CLR_Buf
  2211 ;;		_UART1_SendData
  2212 ;; This function is called by:
  2213 ;;		_main
  2214 ;; This function uses a non-reentrant model
  2215 ;;
  2216                           
  2217                           	psect	text12
  2218  00188A                     __ptext12:
  2219                           	callstack 0
  2220  00188A                     _UART1_Send_Greeting:
  2221                           	callstack 28
  2222  00188A                     
  2223                           ;./UART.h: 22: void UART1_Send_Greeting(char *s);./UART.h: 23: {;./UART.h: 25:  while(*s
      +                          )
  2224  00188A  EF53  F00C         	goto	l1442
  2225  00188E                     l1438:
  2226                           
  2227                           ;./UART.h: 26:  {;./UART.h: 27:   UART1_SendData(*s++);
  2228  00188E  0060  F00B  FFF6   	movff	UART1_Send_Greeting@s,tblptrl
  2229  001894  0060  F00F  FFF7   	movff	UART1_Send_Greeting@s+1,tblptrh
  2230  00189A                     	if	0	;tblptru may be non-zero
  2231  00189A                     	endif
  2232  00189A                     	if	0	;tblptru may be non-zero
  2233  00189A                     	endif
  2234  00189A  0008               	tblrd		*
  2235  00189C  50F5               	movf	tablat,w,c
  2236  00189E  EC2A  F00D         	call	_UART1_SendData
  2237  0018A2  4A02               	infsnz	UART1_Send_Greeting@s^0,f,c
  2238  0018A4  2A03               	incf	(UART1_Send_Greeting@s+1)^0,f,c
  2239  0018A6                     l1442:
  2240                           
  2241                           ;./UART.h: 25:  while(*s)
  2242  0018A6  0060  F00B  FFF6   	movff	UART1_Send_Greeting@s,tblptrl
  2243  0018AC  0060  F00F  FFF7   	movff	UART1_Send_Greeting@s+1,tblptrh
  2244  0018B2                     	if	0	;tblptru may be non-zero
  2245  0018B2                     	endif
  2246  0018B2                     	if	0	;tblptru may be non-zero
  2247  0018B2                     	endif
  2248  0018B2  0008               	tblrd		*
  2249  0018B4  50F5               	movf	tablat,w,c
  2250  0018B6  0900               	iorlw	0
  2251  0018B8  A4D8               	btfss	status,2,c
  2252  0018BA  EF61  F00C         	goto	u871
  2253  0018BE  EF63  F00C         	goto	u870
  2254  0018C2                     u871:
  2255  0018C2  EF47  F00C         	goto	l1438
  2256  0018C6                     u870:
  2257  0018C6                     
  2258                           ;./UART.h: 29:     CLR_Buf();
  2259  0018C6  ECF2  F00C         	call	_CLR_Buf	;wreg free
  2260  0018CA                     
  2261                           ;./UART.h: 30:  UART1_SendData(0X0D);UART1_SendData(0X0A);
  2262  0018CA  0E0D               	movlw	13
  2263  0018CC  EC2A  F00D         	call	_UART1_SendData
  2264  0018D0  0E0A               	movlw	10
  2265  0018D2  EC2A  F00D         	call	_UART1_SendData
  2266  0018D6  0012               	return		;funcret
  2267  0018D8                     __end_of_UART1_Send_Greeting:
  2268                           	callstack 0
  2269                           
  2270 ;; *************** function _UART1_SendData *****************
  2271 ;; Defined at:
  2272 ;;		line 13 in file "./UART.h"
  2273 ;; Parameters:    Size  Location     Type
  2274 ;;  dat             1    wreg     unsigned char 
  2275 ;; Auto vars:     Size  Location     Type
  2276 ;;  dat             1    0[COMRAM] unsigned char 
  2277 ;; Return value:  Size  Location     Type
  2278 ;;                  1    wreg      void 
  2279 ;; Registers used:
  2280 ;;		wreg
  2281 ;; Tracked objects:
  2282 ;;		On entry : 0/0
  2283 ;;		On exit  : 0/0
  2284 ;;		Unchanged: 0/0
  2285 ;; Data sizes:     COMRAM   BANK0   BANK1   BANK2   BANK3   BANK4   BANK5   BANK6   BANK7   BANK8   BANK9  BANK10  BANK1
      +1  BANK12  BANK13  BANK14  BANK15
  2286 ;;      Params:         0       0       0       0       0       0       0       0       0       0       0       0       
      +0       0       0       0       0
  2287 ;;      Locals:         1       0       0       0       0       0       0       0       0       0       0       0       
      +0       0       0       0       0
  2288 ;;      Temps:          0       0       0       0       0       0       0       0       0       0       0       0       
      +0       0       0       0       0
  2289 ;;      Totals:         1       0       0       0       0       0       0       0       0       0       0       0       
      +0       0       0       0       0
  2290 ;;Total ram usage:        1 bytes
  2291 ;; Hardware stack levels used:    1
  2292 ;; Hardware stack levels required when called:    1
  2293 ;; This function calls:
  2294 ;;		Nothing
  2295 ;; This function is called by:
  2296 ;;		_UART1_Send_Greeting
  2297 ;;		_UART1_Send_Command
  2298 ;; This function uses a non-reentrant model
  2299 ;;
  2300                           
  2301                           	psect	text13
  2302  001A54                     __ptext13:
  2303                           	callstack 0
  2304  001A54                     _UART1_SendData:
  2305                           	callstack 26
  2306                           
  2307                           ;incstack = 0
  2308                           ;UART1_SendData@dat stored from wreg
  2309  001A54  6E01               	movwf	UART1_SendData@dat^0,c
  2310  001A56                     l74:
  2311  001A56  013D               	movlb	61	; () banked
  2312  001A58  ABF7               	btfss	247,5,b	;volatile
  2313  001A5A  EF31  F00D         	goto	u641
  2314  001A5E  EF33  F00D         	goto	u640
  2315  001A62                     u641:
  2316  001A62  EF2B  F00D         	goto	l74
  2317  001A66                     u640:
  2318  001A66                     
  2319                           ; BSR set to: 61
  2320                           ;./UART.h: 18:  U1TXB = dat;
  2321  001A66  0060  F007  FDEA   	movff	UART1_SendData@dat,15850	;volatile
  2322  001A6C                     
  2323                           ; BSR set to: 61
  2324  001A6C  0012               	return		;funcret
  2325  001A6E                     __end_of_UART1_SendData:
  2326                           	callstack 0
  2327                           
  2328 ;; *************** function _CLR_Buf *****************
  2329 ;; Defined at:
  2330 ;;		line 3 in file "./UART.h"
  2331 ;; Parameters:    Size  Location     Type
  2332 ;;		None
  2333 ;; Auto vars:     Size  Location     Type
  2334 ;;  k               1    0[COMRAM] unsigned char 
  2335 ;; Return value:  Size  Location     Type
  2336 ;;                  1    wreg      void 
  2337 ;; Registers used:
  2338 ;;		wreg, fsr2l, fsr2h, status,2, status,0
  2339 ;; Tracked objects:
  2340 ;;		On entry : 0/0
  2341 ;;		On exit  : 0/0
  2342 ;;		Unchanged: 0/0
  2343 ;; Data sizes:     COMRAM   BANK0   BANK1   BANK2   BANK3   BANK4   BANK5   BANK6   BANK7   BANK8   BANK9  BANK10  BANK1
      +1  BANK12  BANK13  BANK14  BANK15
  2344 ;;      Params:         0       0       0       0       0       0       0       0       0       0       0       0       
      +0       0       0       0       0
  2345 ;;      Locals:         1       0       0       0       0       0       0       0       0       0       0       0       
      +0       0       0       0       0
  2346 ;;      Temps:          0       0       0       0       0       0       0       0       0       0       0       0       
      +0       0       0       0       0
  2347 ;;      Totals:         1       0       0       0       0       0       0       0       0       0       0       0       
      +0       0       0       0       0
  2348 ;;Total ram usage:        1 bytes
  2349 ;; Hardware stack levels used:    1
  2350 ;; Hardware stack levels required when called:    1
  2351 ;; This function calls:
  2352 ;;		Nothing
  2353 ;; This function is called by:
  2354 ;;		_UART1_Send_Greeting
  2355 ;;		_UART1_Send_Command
  2356 ;;		_Wait_CREG
  2357 ;;		_UART1_Send_AT_Command
  2358 ;; This function uses a non-reentrant model
  2359 ;;
  2360                           
  2361                           	psect	text14
  2362  0019E4                     __ptext14:
  2363                           	callstack 0
  2364  0019E4                     _CLR_Buf:
  2365                           	callstack 26
  2366  0019E4                     
  2367                           ;./UART.h: 5:  u8 k;;./UART.h: 6:  for(k=0;k<70;k++)
  2368  0019E4  0E00               	movlw	0
  2369  0019E6  6E01               	movwf	CLR_Buf@k^0,c
  2370  0019E8                     l1290:
  2371                           
  2372                           ;./UART.h: 7:  {;./UART.h: 8:   Uart1_Buf[k] = 0x00;
  2373  0019E8  0E60               	movlw	low _Uart1_Buf
  2374  0019EA  2401               	addwf	CLR_Buf@k^0,w,c
  2375  0019EC  6ED9               	movwf	fsr2l,c
  2376  0019EE  6ADA               	clrf	fsr2h,c
  2377  0019F0  0E00               	movlw	high _Uart1_Buf
  2378  0019F2  22DA               	addwfc	fsr2h,f,c
  2379  0019F4  0E00               	movlw	0
  2380  0019F6  6EDF               	movwf	indf2,c
  2381  0019F8                     
  2382                           ;./UART.h: 9:  }
  2383  0019F8  2A01               	incf	CLR_Buf@k^0,f,c
  2384  0019FA  0E45               	movlw	69
  2385  0019FC  6401               	cpfsgt	CLR_Buf@k^0,c
  2386  0019FE  EF03  F00D         	goto	u631
  2387  001A02  EF05  F00D         	goto	u630
  2388  001A06                     u631:
  2389  001A06  EFF4  F00C         	goto	l1290
  2390  001A0A                     u630:
  2391  001A0A                     
  2392                           ;./UART.h: 10:     First_Int = 0;
  2393  001A0A  0E00               	movlw	0
  2394  001A0C  6E29               	movwf	_First_Int^0,c
  2395  001A0E  0012               	return		;funcret
  2396  001A10                     __end_of_CLR_Buf:
  2397                           	callstack 0
  2398                           
  2399 ;; *************** function _PIN_Initialize *****************
  2400 ;; Defined at:
  2401 ;;		line 35 in file "./Initialize.h"
  2402 ;; Parameters:    Size  Location     Type
  2403 ;;		None
  2404 ;; Auto vars:     Size  Location     Type
  2405 ;;		None
  2406 ;; Return value:  Size  Location     Type
  2407 ;;                  1    wreg      void 
  2408 ;; Registers used:
  2409 ;;		wreg, status,2
  2410 ;; Tracked objects:
  2411 ;;		On entry : 0/0
  2412 ;;		On exit  : 0/0
  2413 ;;		Unchanged: 0/0
  2414 ;; Data sizes:     COMRAM   BANK0   BANK1   BANK2   BANK3   BANK4   BANK5   BANK6   BANK7   BANK8   BANK9  BANK10  BANK1
      +1  BANK12  BANK13  BANK14  BANK15
  2415 ;;      Params:         0       0       0       0       0       0       0       0       0       0       0       0       
      +0       0       0       0       0
  2416 ;;      Locals:         0       0       0       0       0       0       0       0       0       0       0       0       
      +0       0       0       0       0
  2417 ;;      Temps:          0       0       0       0       0       0       0       0       0       0       0       0       
      +0       0       0       0       0
  2418 ;;      Totals:         0       0       0       0       0       0       0       0       0       0       0       0       
      +0       0       0       0       0
  2419 ;;Total ram usage:        0 bytes
  2420 ;; Hardware stack levels used:    1
  2421 ;; Hardware stack levels required when called:    1
  2422 ;; This function calls:
  2423 ;;		Nothing
  2424 ;; This function is called by:
  2425 ;;		_main
  2426 ;; This function uses a non-reentrant model
  2427 ;;
  2428                           
  2429                           	psect	text15
  2430  001A38                     __ptext15:
  2431                           	callstack 0
  2432  001A38                     _PIN_Initialize:
  2433                           	callstack 29
  2434  001A38                     
  2435                           ;./Initialize.h: 37:     TRISB = 0xF0;
  2436  001A38  0EF0               	movlw	240
  2437  001A3A  6EC3               	movwf	195,c	;volatile
  2438                           
  2439                           ;./Initialize.h: 38:     TRISC = 0xBF;
  2440  001A3C  0EBF               	movlw	191
  2441  001A3E  6EC4               	movwf	196,c	;volatile
  2442                           
  2443                           ;./Initialize.h: 40:     ANSELC = 0x1F;
  2444  001A40  0E1F               	movlw	31
  2445  001A42  013A               	movlb	58	; () banked
  2446  001A44  6F60               	movwf	96,b	;volatile
  2447                           
  2448                           ;./Initialize.h: 41:     ANSELB = 0xF0;
  2449  001A46  0EF0               	movlw	240
  2450  001A48  6F50               	movwf	80,b	;volatile
  2451                           
  2452                           ;./Initialize.h: 43:     RC6PPS = 0x13;
  2453  001A4A  0E13               	movlw	19
  2454  001A4C  6F16               	movwf	22,b	;volatile
  2455                           
  2456                           ;./Initialize.h: 44:     U1RXPPS = 0x17;
  2457  001A4E  0E17               	movlw	23
  2458  001A50  6FE5               	movwf	229,b	;volatile
  2459  001A52                     
  2460                           ; BSR set to: 58
  2461  001A52  0012               	return		;funcret
  2462  001A54                     __end_of_PIN_Initialize:
  2463                           	callstack 0
  2464                           
  2465 ;; *************** function _OSCILLATOR_Initialize *****************
  2466 ;; Defined at:
  2467 ;;		line 21 in file "./Initialize.h"
  2468 ;; Parameters:    Size  Location     Type
  2469 ;;		None
  2470 ;; Auto vars:     Size  Location     Type
  2471 ;;		None
  2472 ;; Return value:  Size  Location     Type
  2473 ;;                  1    wreg      void 
  2474 ;; Registers used:
  2475 ;;		wreg, status,2
  2476 ;; Tracked objects:
  2477 ;;		On entry : 0/0
  2478 ;;		On exit  : 0/0
  2479 ;;		Unchanged: 0/0
  2480 ;; Data sizes:     COMRAM   BANK0   BANK1   BANK2   BANK3   BANK4   BANK5   BANK6   BANK7   BANK8   BANK9  BANK10  BANK1
      +1  BANK12  BANK13  BANK14  BANK15
  2481 ;;      Params:         0       0       0       0       0       0       0       0       0       0       0       0       
      +0       0       0       0       0
  2482 ;;      Locals:         0       0       0       0       0       0       0       0       0       0       0       0       
      +0       0       0       0       0
  2483 ;;      Temps:          0       0       0       0       0       0       0       0       0       0       0       0       
      +0       0       0       0       0
  2484 ;;      Totals:         0       0       0       0       0       0       0       0       0       0       0       0       
      +0       0       0       0       0
  2485 ;;Total ram usage:        0 bytes
  2486 ;; Hardware stack levels used:    1
  2487 ;; Hardware stack levels required when called:    1
  2488 ;; This function calls:
  2489 ;;		Nothing
  2490 ;; This function is called by:
  2491 ;;		_main
  2492 ;; This function uses a non-reentrant model
  2493 ;;
  2494                           
  2495                           	psect	text16
  2496  001A6E                     __ptext16:
  2497                           	callstack 0
  2498  001A6E                     _OSCILLATOR_Initialize:
  2499                           	callstack 29
  2500  001A6E                     
  2501                           ;./Initialize.h: 24:     OSCCON1 = 0x60;
  2502  001A6E  0E60               	movlw	96
  2503  001A70  0139               	movlb	57	; () banked
  2504  001A72  6FD9               	movwf	217,b	;volatile
  2505                           
  2506                           ;./Initialize.h: 26:     OSCCON3 = 0x00;
  2507  001A74  0E00               	movlw	0
  2508  001A76  6FDB               	movwf	219,b	;volatile
  2509                           
  2510                           ;./Initialize.h: 28:     OSCEN = 0x00;
  2511  001A78  0E00               	movlw	0
  2512  001A7A  6FDD               	movwf	221,b	;volatile
  2513                           
  2514                           ;./Initialize.h: 30:     OSCFRQ = 0x02;
  2515  001A7C  0E02               	movlw	2
  2516  001A7E  6FDF               	movwf	223,b	;volatile
  2517                           
  2518                           ;./Initialize.h: 32:     OSCTUNE = 0x00;
  2519  001A80  0E00               	movlw	0
  2520  001A82  6FDE               	movwf	222,b	;volatile
  2521  001A84                     
  2522                           ; BSR set to: 57
  2523  001A84  0012               	return		;funcret
  2524  001A86                     __end_of_OSCILLATOR_Initialize:
  2525                           	callstack 0
  2526                           
  2527 ;; *************** function _InterruptManager *****************
  2528 ;; Defined at:
  2529 ;;		line 4 in file "./Interrupt.h"
  2530 ;; Parameters:    Size  Location     Type
  2531 ;;		None
  2532 ;; Auto vars:     Size  Location     Type
  2533 ;;		None
  2534 ;; Return value:  Size  Location     Type
  2535 ;;                  1    wreg      void 
  2536 ;; Registers used:
  2537 ;;		wreg, fsr2l, fsr2h, status,2, status,0
  2538 ;; Tracked objects:
  2539 ;;		On entry : 0/0
  2540 ;;		On exit  : 0/0
  2541 ;;		Unchanged: 0/0
  2542 ;; Data sizes:     COMRAM   BANK0   BANK1   BANK2   BANK3   BANK4   BANK5   BANK6   BANK7   BANK8   BANK9  BANK10  BANK1
      +1  BANK12  BANK13  BANK14  BANK15
  2543 ;;      Params:         0       0       0       0       0       0       0       0       0       0       0       0       
      +0       0       0       0       0
  2544 ;;      Locals:         0       0       0       0       0       0       0       0       0       0       0       0       
      +0       0       0       0       0
  2545 ;;      Temps:          0       0       0       0       0       0       0       0       0       0       0       0       
      +0       0       0       0       0
  2546 ;;      Totals:         0       0       0       0       0       0       0       0       0       0       0       0       
      +0       0       0       0       0
  2547 ;;Total ram usage:        0 bytes
  2548 ;; Hardware stack levels used:    1
  2549 ;; This function calls:
  2550 ;;		Nothing
  2551 ;; This function is called by:
  2552 ;;		Interrupt level 2
  2553 ;; This function uses a non-reentrant model
  2554 ;;
  2555                           
  2556                           	psect	text17
  2557  0016DA                     __ptext17:
  2558                           	callstack 0
  2559  0016DA                     _InterruptManager:
  2560                           	callstack 25
  2561  0016DA                     
  2562                           ;./Interrupt.h: 7:     if(PIE3bits.U1IE == 1 && PIR3bits.U1IF == 1)
  2563  0016DA  0139               	movlb	57	; () banked
  2564  0016DC  AD93               	btfss	147,6,b	;volatile
  2565  0016DE  EF73  F00B         	goto	i2u92_41
  2566  0016E2  EF75  F00B         	goto	i2u92_40
  2567  0016E6                     i2u92_41:
  2568  0016E6  EF93  F00B         	goto	i2l139
  2569  0016EA                     i2u92_40:
  2570  0016EA                     
  2571                           ; BSR set to: 57
  2572  0016EA  ADA3               	btfss	163,6,b	;volatile
  2573  0016EC  EF7A  F00B         	goto	i2u93_41
  2574  0016F0  EF7C  F00B         	goto	i2u93_40
  2575  0016F4                     i2u93_41:
  2576  0016F4  EF93  F00B         	goto	i2l139
  2577  0016F8                     i2u93_40:
  2578  0016F8                     
  2579                           ; BSR set to: 57
  2580                           ;./Interrupt.h: 8:     {;./Interrupt.h: 9:         Uart1_Buf[First_Int] = U1RXB;
  2581  0016F8  0E60               	movlw	low _Uart1_Buf
  2582  0016FA  2429               	addwf	_First_Int^0,w,c
  2583  0016FC  6ED9               	movwf	fsr2l,c
  2584  0016FE  6ADA               	clrf	fsr2h,c
  2585  001700  0E00               	movlw	high _Uart1_Buf
  2586  001702  22DA               	addwfc	fsr2h,f,c
  2587  001704  006F F7A3 FFDF     	movff	15848,indf2	;volatile
  2588  00170A                     
  2589                           ; BSR set to: 57
  2590                           ;./Interrupt.h: 10:   First_Int++;
  2591  00170A  2A29               	incf	_First_Int^0,f,c
  2592  00170C                     
  2593                           ; BSR set to: 57
  2594                           ;./Interrupt.h: 11:   if(First_Int > 70)
  2595  00170C  0E46               	movlw	70
  2596  00170E  6429               	cpfsgt	_First_Int^0,c
  2597  001710  EF8C  F00B         	goto	i2u94_41
  2598  001714  EF8E  F00B         	goto	i2u94_40
  2599  001718                     i2u94_41:
  2600  001718  EF90  F00B         	goto	i2l1496
  2601  00171C                     i2u94_40:
  2602  00171C                     
  2603                           ; BSR set to: 57
  2604                           ;./Interrupt.h: 12:   {;./Interrupt.h: 13:    First_Int = 0;
  2605  00171C  0E00               	movlw	0
  2606  00171E  6E29               	movwf	_First_Int^0,c
  2607  001720                     i2l1496:
  2608                           
  2609                           ; BSR set to: 57
  2610                           ;./Interrupt.h: 15:         PIR3bits.U1IF = 0;
  2611  001720  9DA3               	bcf	163,6,b	;volatile
  2612                           
  2613                           ;./Interrupt.h: 16:     }
  2614  001722  EFBA  F00B         	goto	i2l1514
  2615  001726                     i2l139:
  2616                           
  2617                           ; BSR set to: 57
  2618  001726  A793               	btfss	147,3,b	;volatile
  2619  001728  EF98  F00B         	goto	i2u95_41
  2620  00172C  EF9A  F00B         	goto	i2u95_40
  2621  001730                     i2u95_41:
  2622  001730  EFBA  F00B         	goto	i2l1514
  2623  001734                     i2u95_40:
  2624  001734                     
  2625                           ; BSR set to: 57
  2626  001734  A7A3               	btfss	163,3,b	;volatile
  2627  001736  EF9F  F00B         	goto	i2u96_41
  2628  00173A  EFA1  F00B         	goto	i2u96_40
  2629  00173E                     i2u96_41:
  2630  00173E  EFBA  F00B         	goto	i2l1514
  2631  001742                     i2u96_40:
  2632  001742                     
  2633                           ; BSR set to: 57
  2634                           ;./Interrupt.h: 18:     {;./Interrupt.h: 20:   Uart1_Buf[First_Int] = U1RXB;
  2635  001742  0E60               	movlw	low _Uart1_Buf
  2636  001744  2429               	addwf	_First_Int^0,w,c
  2637  001746  6ED9               	movwf	fsr2l,c
  2638  001748  6ADA               	clrf	fsr2h,c
  2639  00174A  0E00               	movlw	high _Uart1_Buf
  2640  00174C  22DA               	addwfc	fsr2h,f,c
  2641  00174E  006F F7A3 FFDF     	movff	15848,indf2	;volatile
  2642  001754                     
  2643                           ; BSR set to: 57
  2644                           ;./Interrupt.h: 21:   First_Int++;
  2645  001754  2A29               	incf	_First_Int^0,f,c
  2646  001756                     
  2647                           ; BSR set to: 57
  2648                           ;./Interrupt.h: 22:   if(First_Int > 70)
  2649  001756  0E46               	movlw	70
  2650  001758  6429               	cpfsgt	_First_Int^0,c
  2651  00175A  EFB1  F00B         	goto	i2u97_41
  2652  00175E  EFB3  F00B         	goto	i2u97_40
  2653  001762                     i2u97_41:
  2654  001762  EFB5  F00B         	goto	i2l1508
  2655  001766                     i2u97_40:
  2656  001766                     
  2657                           ; BSR set to: 57
  2658                           ;./Interrupt.h: 23:   {;./Interrupt.h: 24:    First_Int = 0;
  2659  001766  0E00               	movlw	0
  2660  001768  6E29               	movwf	_First_Int^0,c
  2661  00176A                     i2l1508:
  2662                           
  2663                           ; BSR set to: 57
  2664                           ;./Interrupt.h: 27:  rs232.rx = U1RXB;
  2665  00176A  006F F7A0  F026    	movff	15848,_rs232	;volatile
  2666  001770                     
  2667                           ; BSR set to: 57
  2668                           ;./Interrupt.h: 28:         rs232.isrx = 1;
  2669  001770  8028               	bsf	(_rs232+2)^0,0,c
  2670  001772                     
  2671                           ; BSR set to: 57
  2672                           ;./Interrupt.h: 29:         PIR3bits.U1RXIF = 0;
  2673  001772  97A3               	bcf	163,3,b	;volatile
  2674  001774                     i2l1514:
  2675                           
  2676                           ; BSR set to: 57
  2677                           ;./Interrupt.h: 31:  if(PIR3bits.U1IF)
  2678  001774  ADA3               	btfss	163,6,b	;volatile
  2679  001776  EFBF  F00B         	goto	i2u98_41
  2680  00177A  EFC1  F00B         	goto	i2u98_40
  2681  00177E                     i2u98_41:
  2682  00177E  EFC2  F00B         	goto	i2l146
  2683  001782                     i2u98_40:
  2684  001782                     
  2685                           ; BSR set to: 57
  2686                           ;./Interrupt.h: 32:  {;./Interrupt.h: 33:   PIR3bits.U1IF = 0;
  2687  001782  9DA3               	bcf	163,6,b	;volatile
  2688  001784                     i2l146:
  2689                           
  2690                           ; BSR set to: 57
  2691  001784  0011               	retfie		f
  2692  001786                     __end_of_InterruptManager:
  2693                           	callstack 0
  2694                           
  2695                           ;
  2696                           ; Interrupt Vector Table @ 0x8
  2697                           ;
  2698                           
  2699                           	psect	ivt0x8
  2700  000008                     __pivt0x8:
  2701                           	callstack 0
  2702  000008                     ivt0x8_base:
  2703                           	callstack 0
  2704                           
  2705                           ; high-priority vector
  2706  000008  EF6D  F00B         	goto	_InterruptManager
  2707  000018                     	org	16
  2708                           
  2709                           ; low-priority vector
  2710  000018  00FF               	reset	
  2711                           
  2712                           	psect	rparam
  2713  0000                     
  2714                           	psect	idloc
  2715                           
  2716                           ;Config register IDLOC0 @ 0x200000
  2717                           ;	unspecified, using default values
  2718  200000                     	org	2097152
  2719  200000  0FFF               	dw	4095
  2720                           
  2721                           ;Config register IDLOC1 @ 0x200002
  2722                           ;	unspecified, using default values
  2723  200002                     	org	2097154
  2724  200002  0FFF               	dw	4095
  2725                           
  2726                           ;Config register IDLOC2 @ 0x200004
  2727                           ;	unspecified, using default values
  2728  200004                     	org	2097156
  2729  200004  0FFF               	dw	4095
  2730                           
  2731                           ;Config register IDLOC3 @ 0x200006
  2732                           ;	unspecified, using default values
  2733  200006                     	org	2097158
  2734  200006  0FFF               	dw	4095
  2735                           
  2736                           ;Config register IDLOC4 @ 0x200008
  2737                           ;	unspecified, using default values
  2738  200008                     	org	2097160
  2739  200008  0FFF               	dw	4095
  2740                           
  2741                           ;Config register IDLOC5 @ 0x20000A
  2742                           ;	unspecified, using default values
  2743  20000A                     	org	2097162
  2744  20000A  0FFF               	dw	4095
  2745                           
  2746                           ;Config register IDLOC6 @ 0x20000C
  2747                           ;	unspecified, using default values
  2748  20000C                     	org	2097164
  2749  20000C  0FFF               	dw	4095
  2750                           
  2751                           ;Config register IDLOC7 @ 0x20000E
  2752                           ;	unspecified, using default values
  2753  20000E                     	org	2097166
  2754  20000E  0FFF               	dw	4095
  2755                           
  2756                           	psect	config
  2757                           
  2758                           ;Config register CONFIG1L @ 0x300000
  2759                           ;	External Oscillator Selection
  2760                           ;	FEXTOSC = OFF, Oscillator not enabled
  2761                           ;	Reset Oscillator Selection
  2762                           ;	RSTOSC = HFINTOSC_1MHZ, HFINTOSC with HFFRQ = 4 MHz and CDIV = 4:1
  2763  300000                     	org	3145728
  2764  300000  EC                 	db	236
  2765                           
  2766                           ;Config register CONFIG1H @ 0x300001
  2767                           ;	Clock out Enable bit
  2768                           ;	CLKOUTEN = OFF, CLKOUT function is disabled
  2769                           ;	PRLOCKED One-Way Set Enable bit
  2770                           ;	PR1WAY = ON, PRLOCK bit can be cleared and set only once
  2771                           ;	Clock Switch Enable bit
  2772                           ;	CSWEN = ON, Writing to NOSC and NDIV is allowed
  2773                           ;	Fail-Safe Clock Monitor Enable bit
  2774                           ;	FCMEN = ON, Fail-Safe Clock Monitor enabled
  2775  300001                     	org	3145729
  2776  300001  FF                 	db	255
  2777                           
  2778                           ;Config register CONFIG2L @ 0x300002
  2779                           ;	MCLR Enable bit
  2780                           ;	MCLRE = EXTMCLR, If LVP = 0, MCLR pin is MCLR; If LVP = 1, RE3 pin function is MCLR
  2781                           ;	Power-up timer selection bits
  2782                           ;	PWRTS = PWRT_OFF, PWRT is disabled
  2783                           ;	Multi-vector enable bit
  2784                           ;	MVECEN = OFF, Interrupt contoller does not use vector table to prioritze interrupts
  2785                           ;	IVTLOCK bit One-way set enable bit
  2786                           ;	IVT1WAY = ON, IVTLOCK bit can be cleared and set only once
  2787                           ;	Low Power BOR Enable bit
  2788                           ;	LPBOREN = OFF, ULPBOR disabled
  2789                           ;	Brown-out Reset Enable bits
  2790                           ;	BOREN = SBORDIS, Brown-out Reset enabled , SBOREN bit is ignored
  2791  300002                     	org	3145730
  2792  300002  F7                 	db	247
  2793                           
  2794                           ;Config register CONFIG2H @ 0x300003
  2795                           ;	Brown-out Reset Voltage Selection bits
  2796                           ;	BORV = VBOR_2P45, Brown-out Reset Voltage (VBOR) set to 2.45V
  2797                           ;	ZCD Disable bit
  2798                           ;	ZCD = OFF, ZCD disabled. ZCD can be enabled by setting the ZCDSEN bit of ZCDCON
  2799                           ;	PPSLOCK bit One-Way Set Enable bit
  2800                           ;	PPS1WAY = ON, PPSLOCK bit can be cleared and set only once; PPS registers remain locke
      +                          d after one clear/set cycle
  2801                           ;	Stack Full/Underflow Reset Enable bit
  2802                           ;	STVREN = ON, Stack full/underflow will cause Reset
  2803                           ;	Debugger Enable bit
  2804                           ;	DEBUG = OFF, Background debugger disabled
  2805                           ;	Extended Instruction Set Enable bit
  2806                           ;	XINST = OFF, Extended Instruction Set and Indexed Addressing Mode disabled
  2807  300003                     	org	3145731
  2808  300003  FF                 	db	255
  2809                           
  2810                           ;Config register CONFIG3L @ 0x300004
  2811                           ;	WDT Period selection bits
  2812                           ;	WDTCPS = WDTCPS_31, Divider ratio 1:65536; software control of WDTPS
  2813                           ;	WDT operating mode
  2814                           ;	WDTE = OFF, WDT Disabled; SWDTEN is ignored
  2815  300004                     	org	3145732
  2816  300004  9F                 	db	159
  2817                           
  2818                           ;Config register CONFIG3H @ 0x300005
  2819                           ;	WDT Window Select bits
  2820                           ;	WDTCWS = WDTCWS_7, window always open (100%); software control; keyed access not requi
      +                          red
  2821                           ;	WDT input clock selector
  2822                           ;	WDTCCS = SC, Software Control
  2823  300005                     	org	3145733
  2824  300005  FF                 	db	255
  2825                           
  2826                           ;Config register CONFIG4L @ 0x300006
  2827                           ;	Boot Block Size selection bits
  2828                           ;	BBSIZE = BBSIZE_512, Boot Block size is 512 words
  2829                           ;	Boot Block enable bit
  2830                           ;	BBEN = OFF, Boot block disabled
  2831                           ;	Storage Area Flash enable bit
  2832                           ;	SAFEN = OFF, SAF disabled
  2833                           ;	Application Block write protection bit
  2834                           ;	WRTAPP = OFF, Application Block not write protected
  2835  300006                     	org	3145734
  2836  300006  FF                 	db	255
  2837                           
  2838                           ;Config register CONFIG4H @ 0x300007
  2839                           ;	Configuration Register Write Protection bit
  2840                           ;	WRTB = OFF, Configuration registers (300000-30000Bh) not write-protected
  2841                           ;	Boot Block Write Protection bit
  2842                           ;	WRTC = OFF, Boot Block (000000-0007FFh) not write-protected
  2843                           ;	Data EEPROM Write Protection bit
  2844                           ;	WRTD = OFF, Data EEPROM not write-protected
  2845                           ;	SAF Write protection bit
  2846                           ;	WRTSAF = OFF, SAF not Write Protected
  2847                           ;	Low Voltage Programming Enable bit
  2848                           ;	LVP = ON, Low voltage programming enabled. MCLR/VPP pin function is MCLR. MCLRE config
      +                          uration bit is ignored
  2849  300007                     	org	3145735
  2850  300007  FF                 	db	255
  2851                           
  2852                           ;Config register CONFIG5L @ 0x300008
  2853                           ;	PFM and Data EEPROM Code Protection bit
  2854                           ;	CP = OFF, PFM and Data EEPROM code protection disabled
  2855  300008                     	org	3145736
  2856  300008  FF                 	db	255
  2857                           
  2858                           ;Config register CONFIG5H @ 0x300009
  2859                           ;	unspecified, using default values
  2860  300009                     	org	3145737
  2861  300009  FF                 	db	255
  2862                           tosu	equ	0x3FFF
  2863                           tosh	equ	0x3FFE
  2864                           tosl	equ	0x3FFD
  2865                           stkptr	equ	0x3FFC
  2866                           pclatu	equ	0x3FFB
  2867                           pclath	equ	0x3FFA
  2868                           pcl	equ	0x3FF9
  2869                           tblptru	equ	0x3FF8
  2870                           tblptrh	equ	0x3FF7
  2871                           tblptrl	equ	0x3FF6
  2872                           tablat	equ	0x3FF5
  2873                           prodh	equ	0x3FF4
  2874                           prodl	equ	0x3FF3
  2875                           indf0	equ	0x3FEF
  2876                           postinc0	equ	0x3FEE
  2877                           postdec0	equ	0x3FED
  2878                           preinc0	equ	0x3FEC
  2879                           plusw0	equ	0x3FEB
  2880                           fsr0h	equ	0x3FEA
  2881                           fsr0l	equ	0x3FE9
  2882                           wreg	equ	0x3FE8
  2883                           indf1	equ	0x3FE7
  2884                           postinc1	equ	0x3FE6
  2885                           postdec1	equ	0x3FE5
  2886                           preinc1	equ	0x3FE4
  2887                           plusw1	equ	0x3FE3
  2888                           fsr1h	equ	0x3FE2
  2889                           fsr1l	equ	0x3FE1
  2890                           bsr	equ	0x3FE0
  2891                           indf2	equ	0x3FDF
  2892                           postinc2	equ	0x3FDE
  2893                           postdec2	equ	0x3FDD
  2894                           preinc2	equ	0x3FDC
  2895                           plusw2	equ	0x3FDB
  2896                           fsr2h	equ	0x3FDA
  2897                           fsr2l	equ	0x3FD9
  2898                           status	equ	0x3FD8

Data Sizes:
    Strings     169
    Constant    0
    Data        2
    BSS         74
    Persistent  0
    Stack       0

Auto Spaces:
    Space          Size  Autos    Used
    COMRAM           95     37      43
    BANK0           160      0      70
    BANK1           256      0       0
    BANK2           256      0       0
    BANK3           256      0       0
    BANK4           256      0       0
    BANK5           256      0       0
    BANK6           256      0       0
    BANK7           256      0       0
    BANK8           256      0       0
    BANK9           256      0       0
    BANK10          256      0       0
    BANK11          256      0       0
    BANK12          256      0       0
    BANK13          256      0       0
    BANK14          256      0       0
    BANK15          256      0       0

Pointer List with Targets:

    strncmp@_r	PTR const unsigned char  size(2) Largest target is 6
		 -> STR_7(CODE[3]), STR_6(CODE[6]), STR_4(CODE[3]), 

    strncmp@r	PTR const unsigned char  size(2) Largest target is 6
		 -> STR_7(CODE[3]), STR_6(CODE[6]), STR_4(CODE[3]), 

    strncmp@_l	PTR const unsigned char  size(2) Largest target is 70
		 -> NULL(NULL[0]), Uart1_Buf(BANK0[70]), 

    strncmp@l	PTR const unsigned char  size(2) Largest target is 70
		 -> NULL(NULL[0]), Uart1_Buf(BANK0[70]), 

    strlen@s	PTR const unsigned char  size(2) Largest target is 6
		 -> STR_7(CODE[3]), STR_6(CODE[6]), STR_4(CODE[3]), 

    strlen@a	PTR const unsigned char  size(2) Largest target is 6
		 -> STR_7(CODE[3]), STR_6(CODE[6]), STR_4(CODE[3]), 

    strchr@s	PTR const unsigned char  size(2) Largest target is 70
		 -> NULL(NULL[0]), Uart1_Buf(BANK0[70]), 

    sp__strchr	PTR unsigned char  size(2) Largest target is 70
		 -> NULL(NULL[0]), Uart1_Buf(BANK0[70]), 

    strstr@h	PTR const unsigned char  size(2) Largest target is 70
		 -> NULL(NULL[0]), Uart1_Buf(BANK0[70]), 

    strstr@n	PTR const unsigned char  size(2) Largest target is 6
		 -> STR_7(CODE[3]), STR_6(CODE[6]), STR_4(CODE[3]), 

    call_phone_num@phone	PTR unsigned char  size(2) Largest target is 18
		 -> STR_1(CODE[18]), 

    UART1_Send_AT_Command@a	PTR unsigned char  size(2) Largest target is 6
		 -> STR_7(CODE[3]), STR_6(CODE[6]), STR_4(CODE[3]), 

    UART1_Send_AT_Command@b	PTR unsigned char  size(2) Largest target is 18
		 -> STR_5(CODE[9]), STR_3(CODE[3]), STR_1(CODE[18]), 

    UART1_Send_Command@s	PTR unsigned char  size(2) Largest target is 18
		 -> STR_5(CODE[9]), STR_3(CODE[3]), STR_2(CODE[9]), STR_1(CODE[18]), 

    sp__strstr	PTR unsigned char  size(2) Largest target is 70
		 -> NULL(NULL[0]), Uart1_Buf(BANK0[70]), 

    Find@a	PTR unsigned char  size(2) Largest target is 6
		 -> STR_7(CODE[3]), STR_6(CODE[6]), STR_4(CODE[3]), 

    phone_num	PTR unsigned char  size(2) Largest target is 18
		 -> STR_1(CODE[18]), 

    UART1_Send_Greeting@s	PTR unsigned char  size(2) Largest target is 47
		 -> STR_13(CODE[22]), STR_12(CODE[18]), STR_11(CODE[16]), STR_10(CODE[8]), 
		 -> STR_9(CODE[47]), STR_8(CODE[10]), 


Critical Paths under _main in COMRAM

    _main->_call_phone_num
    _call_phone_num->_UART1_Send_AT_Command
    _Wait_CREG->_UART1_Send_Command
    _UART1_Send_AT_Command->_Find
    _UART1_Send_Command->_CLR_Buf
    _UART1_Send_Command->_UART1_SendData
    _Find->_strstr
    _strstr->_strncmp
    _UART1_Send_Greeting->_CLR_Buf
    _UART1_Send_Greeting->_UART1_SendData

Critical Paths under _InterruptManager in COMRAM

    None.

Critical Paths under _main in BANK0

    None.

Critical Paths under _InterruptManager in BANK0

    None.

Critical Paths under _main in BANK1

    None.

Critical Paths under _InterruptManager in BANK1

    None.

Critical Paths under _main in BANK2

    None.

Critical Paths under _InterruptManager in BANK2

    None.

Critical Paths under _main in BANK3

    None.

Critical Paths under _InterruptManager in BANK3

    None.

Critical Paths under _main in BANK4

    None.

Critical Paths under _InterruptManager in BANK4

    None.

Critical Paths under _main in BANK5

    None.

Critical Paths under _InterruptManager in BANK5

    None.

Critical Paths under _main in BANK6

    None.

Critical Paths under _InterruptManager in BANK6

    None.

Critical Paths under _main in BANK7

    None.

Critical Paths under _InterruptManager in BANK7

    None.

Critical Paths under _main in BANK8

    None.

Critical Paths under _InterruptManager in BANK8

    None.

Critical Paths under _main in BANK9

    None.

Critical Paths under _InterruptManager in BANK9

    None.

Critical Paths under _main in BANK10

    None.

Critical Paths under _InterruptManager in BANK10

    None.

Critical Paths under _main in BANK11

    None.

Critical Paths under _InterruptManager in BANK11

    None.

Critical Paths under _main in BANK12

    None.

Critical Paths under _InterruptManager in BANK12

    None.

Critical Paths under _main in BANK13

    None.

Critical Paths under _InterruptManager in BANK13

    None.

Critical Paths under _main in BANK14

    None.

Critical Paths under _InterruptManager in BANK14

    None.

Critical Paths under _main in BANK15

    None.

Critical Paths under _InterruptManager in BANK15

    None.

Call Graph Tables:

 ---------------------------------------------------------------------------------
 (Depth) Function   	        Calls       Base Space   Used Autos Params    Refs
 ---------------------------------------------------------------------------------
 (0) _main                                                 5     5      0    4462
                                             32 COMRAM     5     5      0
              _OSCILLATOR_Initialize
                     _PIN_Initialize
                _UART1_Send_Greeting
                    _UART_Initialize
                     _call_phone_num
 ---------------------------------------------------------------------------------
 (1) _call_phone_num                                       5     3      2    3714
                                             27 COMRAM     5     3      2
              _UART1_Send_AT_Command
                          _Wait_CREG
 ---------------------------------------------------------------------------------
 (2) _Wait_CREG                                            5     5      0     691
                                              3 COMRAM     5     5      0
                            _CLR_Buf
                 _UART1_Send_Command
 ---------------------------------------------------------------------------------
 (2) _UART1_Send_AT_Command                                8     1      7    2833
                                             19 COMRAM     8     1      7
                            _CLR_Buf
                               _Find
                 _UART1_Send_Command
                           _delay_ms
 ---------------------------------------------------------------------------------
 (3) _delay_ms                                             5     3      2     123
                                              0 COMRAM     5     3      2
 ---------------------------------------------------------------------------------
 (3) _UART1_Send_Command                                   2     0      2     287
                                              1 COMRAM     2     0      2
                            _CLR_Buf
                     _UART1_SendData
 ---------------------------------------------------------------------------------
 (3) _Find                                                 2     0      2    1331
                                             17 COMRAM     2     0      2
                             _strstr
 ---------------------------------------------------------------------------------
 (4) _strstr                                               6     2      4    1233
                                             11 COMRAM     6     2      4
                             _strchr
                             _strlen
                            _strncmp
 ---------------------------------------------------------------------------------
 (5) _strncmp                                             11     5      6     453
                                              0 COMRAM    11     5      6
 ---------------------------------------------------------------------------------
 (5) _strlen                                               4     2      2     166
                                              0 COMRAM     4     2      2
 ---------------------------------------------------------------------------------
 (5) _strchr                                               5     1      4     240
                                              0 COMRAM     5     1      4
 ---------------------------------------------------------------------------------
 (1) _UART_Initialize                                      0     0      0       0
 ---------------------------------------------------------------------------------
 (1) _UART1_Send_Greeting                                  2     0      2     591
                                              1 COMRAM     2     0      2
                            _CLR_Buf
                     _UART1_SendData
 ---------------------------------------------------------------------------------
 (4) _UART1_SendData                                       1     1      0      22
                                              0 COMRAM     1     1      0
 ---------------------------------------------------------------------------------
 (4) _CLR_Buf                                              1     1      0      68
                                              0 COMRAM     1     1      0
 ---------------------------------------------------------------------------------
 (1) _PIN_Initialize                                       0     0      0       0
 ---------------------------------------------------------------------------------
 (1) _OSCILLATOR_Initialize                                0     0      0       0
 ---------------------------------------------------------------------------------
 Estimated maximum stack depth 5
 ---------------------------------------------------------------------------------
 (Depth) Function   	        Calls       Base Space   Used Autos Params    Refs
 ---------------------------------------------------------------------------------
 (6) _InterruptManager                                     0     0      0       0
 ---------------------------------------------------------------------------------
 Estimated maximum stack depth 6
 ---------------------------------------------------------------------------------

 Call Graph Graphs:

 _main (ROOT)
   _OSCILLATOR_Initialize
   _PIN_Initialize
   _UART1_Send_Greeting
     _CLR_Buf
     _UART1_SendData
   _UART_Initialize
   _call_phone_num
     _UART1_Send_AT_Command
       _CLR_Buf
       _Find
         _strstr
           _strchr
           _strlen
           _strncmp
       _UART1_Send_Command
         _CLR_Buf
         _UART1_SendData
       _delay_ms
     _Wait_CREG
       _CLR_Buf
       _UART1_Send_Command
         _CLR_Buf
         _UART1_SendData

 _InterruptManager (ROOT)

 Address spaces:
Name               Size   Autos  Total    Cost      Usage
BIGRAM             FFF      0       0      37        0.0%
EEDATA             400      0       0       0        0.0%
BITBANK15          100      0       0      30        0.0%
BANK15             100      0       0      31        0.0%
BITBANK14          100      0       0      28        0.0%
BANK14             100      0       0      29        0.0%
BITBANK13          100      0       0      36        0.0%
BANK13             100      0       0      27        0.0%
BITBANK12          100      0       0      35        0.0%
BANK12             100      0       0      26        0.0%
BITBANK11          100      0       0      34        0.0%
BANK11             100      0       0      25        0.0%
BITBANK10          100      0       0      33        0.0%
BANK10             100      0       0      24        0.0%
BITBANK9           100      0       0      22        0.0%
BANK9              100      0       0      23        0.0%
BITBANK8           100      0       0      20        0.0%
BANK8              100      0       0      21        0.0%
BITBANK7           100      0       0      18        0.0%
BANK7              100      0       0      19        0.0%
BITBANK6           100      0       0      16        0.0%
BANK6              100      0       0      17        0.0%
BITBANK5           100      0       0      14        0.0%
BANK5              100      0       0      15        0.0%
BITBANK4           100      0       0      12        0.0%
BANK4              100      0       0      13        0.0%
BITBANK3           100      0       0      10        0.0%
BANK3              100      0       0      11        0.0%
BITBANK2           100      0       0       8        0.0%
BANK2              100      0       0       9        0.0%
BITBANK1           100      0       0       6        0.0%
BANK1              100      0       0       7        0.0%
BITBANK0            A0      0       0       4        0.0%
BANK0               A0      0      46       5       43.8%
BITCOMRAM           5F      0       0       0        0.0%
COMRAM              5F     25      2B       1       45.3%
BITSFR_8             0      0       0     200        0.0%
SFR_8                0      0       0     200        0.0%
BITSFR_7             0      0       0     200        0.0%
SFR_7                0      0       0     200        0.0%
BITSFR_6             0      0       0     200        0.0%
SFR_6                0      0       0     200        0.0%
BITSFR_5             0      0       0     200        0.0%
SFR_5                0      0       0     200        0.0%
BITSFR_4             0      0       0     200        0.0%
SFR_4                0      0       0     200        0.0%
BITSFR_3             0      0       0     200        0.0%
SFR_3                0      0       0     200        0.0%
BITSFR_2             0      0       0     200        0.0%
SFR_2                0      0       0     200        0.0%
BITSFR_1             0      0       0     200        0.0%
SFR_1                0      0       0     200        0.0%
BITSFR               0      0       0     200        0.0%
SFR                  0      0       0     200        0.0%
STACK                0      0       0       2        0.0%
NULL                 0      0       0       0        0.0%
ABS                  0      0      71      32        0.0%
DATA                 0      0      71       3        0.0%
CODE                 0      0       0       0        0.0%


Microchip Technology PIC18 Macro Assembler V2.31 build 20201012212115 
Symbol Table                                                                                   Sat Jan 09 01:54:36 2021

                ??_InterruptManager 0001                                  l63 1A84  
                                l71 1A0E                                  l66 1A52  
                                l74 1A56                                  l83 18D6  
                                l91 19DC                                  l92 19E2  
                                l77 1A6C                                  l86 1A36  
                                l99 1888      UART1_Send_AT_Command@wait_time 0018  
                               l120 1968                                 l112 141E  
                               l131 1522                                 l117 194A  
                               l126 17E6                                 l158 1174  
                               l860 16D8                                 l866 17E8  
                               l875 19A6                                 l868 183A  
                               l879 1610                                 u600 15E6  
                               u601 15E2                                 u610 1806  
                               u611 1802                                 u620 1832  
                               u700 187C                                 u621 182E  
                               u701 1878                                 u630 1A0A  
                               u550 199A                                 u710 1968  
                               u631 1A06                                 u551 1996  
                               u711 1964                                 u640 1A66  
                               u560 154E                                 u800 13BA  
                               u720 12CA                                 u641 1A62  
                               u561 154A                                 u801 13B6  
                               u721 12C6                                 u570 1584  
                               u650 1624                                 u810 13D8  
                               u730 12E8                                 u571 1580  
                               u651 1620                                 u811 13D4  
                               u731 12E4                                 u580 15A4  
                               u660 166A                                 u820 13F0  
                               u740 1306                                 u900 14C8  
                               u581 15A0                                 u661 1666  
                               u821 13EC                                 u741 1302  
                               u901 14C4                                 u590 15B6  
                               u670 16B4                                 u830 1404  
                               u750 1324                                 u910 150E  
                               u591 15B2                                 u671 16B0  
                               u831 1400                                 u751 1320  
                               u911 150A                                 u680 16D0  
                               u840 141A                                 u760 1342  
                               u681 16CC                                 u841 1416  
                               u761 133E                                 u690 19D2  
                               u850 17CA                                 u770 1360  
                               u691 19CE                                 u851 17C6  
                               u771 135C                                 u860 17E4  
                               u780 137E                                 u861 17E0  
                               u781 137A                                 u870 18C6  
                               u790 139C                                 u871 18C2  
                               u791 1398                                 u880 145A  
                               u881 1456                                 u890 149C  
                               u891 1498                                 u990 1114  
                               u991 1110                                 wreg 003FE8  
                   __end_of_CLR_Buf 1A10                                l1100 1A18  
                              l1102 1A30                                l1104 1A34  
                              l1300 1A66                                l1302 1612  
                              l1080 1A6E                                l1312 1676  
                              l1304 1624                                l1400 13F2  
                              l1082 1A38                                l1242 196A  
                              l1306 163C                                l1314 16A2  
                              l1322 19A8                                l1402 1404  
                              l1244 1976                                l1260 1568  
                              l1252 1524                                l1316 16B4  
                              l1308 166A                                l1324 19AC  
                              l1340 1844                                l1420 17A2  
                              l1412 1786                     ?_call_phone_num 001C  
                              l1246 197A                                l1262 1584  
                              l1254 154E                                l1318 16D0  
                              l1334 19E0                                l1326 19D2  
                              l1342 1858                                l1350 1936  
                              l1422 17AE                                l1430 17D2  
                              l1414 178A                                l1406 140A  
                              l1440 18A2                                l1280 1832  
                              l1272 17E8                                l1248 199A  
                              l1264 15A4                                l1328 19D6  
                              l1344 185C                                l1352 1946  
                              l1432 17E4                                l1424 17CA  
                              l1416 1792                                l1360 129A  
                              l1520 10B8                                l1290 19E8  
                              l1442 18A6                                l1098 1A10  
                              l1274 1806                                l1266 15B6  
                              l1258 155A                                l1346 187C  
                              l1338 183C                                l1418 1796  
                              l1370 12CA                                l1362 12A8  
                              l1354 127E                                l1450 1420  
                              l1522 10BA                                l1292 19F8  
                              l1284 19E4                                l1444 18C6  
                              l1436 188A                                l1268 15E6  
                              l1348 1922                                l1428 17D0  
                              l1380 1360                                l1372 12E8  
                              l1356 1286                                l1460 149C  
                              l1452 1448                                l1540 112A  
                              l1524 10D0                                l1294 19FA  
                              l1446 18CA                                l1438 188E  
                              l1278 1812                                l1390 13D8  
                              l1382 137E                                l1374 1306  
                              l1358 128E                                l1454 145A  
                              l1550 1182                                l1542 114A  
                              l1534 10EC                                l1526 10DC  
                              l1518 10AC                                l1296 1A0A  
                              l1448 18D0                                l1384 139C  
                              l1376 1324                                l1368 12AC  
                              l1480 151A                                l1472 14D4  
                              l1464 14A8                                l1456 1462  
                              l1560 11D0                                l1552 1196  
                              l1544 1158                                l1536 1102  
                              l1528 10E8                                l1298 1A56  
                              l1386 13BA                                l1378 1342  
                              l1394 13DE                                l1474 14FC  
                              l1466 14B6                                l1458 148A  
                              l1570 120E                                l1562 11D4  
                              l1554 11A8                                l1546 1166  
                              l1538 1114                                l1396 13E0  
                              l1388 13D8                                l1476 150E  
                              l1468 14C8                                l1580 1256  
                              l1572 1224                                l1564 11E4  
                              l1556 11AC                                l1398 13F0  
                              l1574 1228                                l1566 11FA  
                              l1582 125A                                l1558 11BC  
                              l1584 1270                                l1576 1238  
                              l1568 11FE                                l1578 124E  
                              STR_1 1046                                STR_2 1084  
                              STR_3 10A7                                STR_4 10A4  
                              STR_5 108D                                STR_6 109E  
                              STR_7 10A4                                STR_8 107A  
                              STR_9 1001                                u1000 113A  
                              u1001 1134                                u1010 1158  
                              u1011 1154                                u1020 1174  
                              u1021 1170                                u1030 1182  
                              u1006 113C                                u1031 117E  
                              u1040 11A8                                u1041 11A4  
                              u1050 11D0                                u1051 11CC  
                              u1107 10F6                                u1060 11FA  
                              u1061 11F6                                u1117 111E  
                              u1070 1224                                u1071 1220  
                              u1127 115E                                u1080 124E  
                              u1137 1264                                u1081 124A  
                              u1147 12A0                                u1157 193C  
                              _LATB 003FBB                                u1097 10C4  
                    _UART1_SendData 1A54              UART1_Send_AT_Command@a 0016  
            UART1_Send_AT_Command@b 0014              UART1_Send_AT_Command@i 001B  
                              _Find 19A8                                _main 10AC  
                              fsr2h 003FDA                                indf2 003FDF  
                              fsr2l 003FD9                   UART1_SendData@dat 0001  
                              start 001A                        ___param_bank 000000  
            ?_UART1_Send_AT_Command 0014                    ?_UART_Initialize 0001  
                             ?_Find 0012      __size_of_OSCILLATOR_Initialize 0018  
     __end_of_OSCILLATOR_Initialize 1A86                               ?_main 0001  
                             STR_10 1096                               STR_11 106A  
                             STR_12 1058                               STR_13 1030  
                             _U1RXB 003DE8                               _U1TXB 003DEA  
                             i2l146 1784                               i2l139 1726  
                             Find@a 0012                               _OSCEN 0039DD  
                             _TRISB 003FC3                               _TRISC 003FC4  
           __size_of_PIN_Initialize 001C                               _rs232 0026  
            __end_of_UART1_SendData 1A6E                               main@i 0023  
                             tablat 003FF5                               status 003FD8  
                   __end_of_strncmp 1612                        __end_of_Find 19E4  
                   __initialization 18D8                        __end_of_main 127C  
                            ??_Find 0014         __size_of_UART1_Send_Command 004E  
                            ??_main 0021                       __activetblptr 000001  
                         ??_CLR_Buf 0001                          Wait_CREG@i 0006  
                        Wait_CREG@j 0007                          Wait_CREG@k 0008  
                   ?_UART1_SendData 0001                              _ANSELB 003A50  
                            _ANSELC 003A60                              _U1CON0 003DF2  
                            _U1CON1 003DF3                              _U1BRGH 003DF6  
                            _U1FIFO 003DF7                              _U1BRGL 003DF5  
                            _RC6PPS 003A16                              i2l1500 1742  
                            i2l1510 1770                              i2l1502 1754  
                            i2l1512 1772                              i2l1504 1756  
                            i2l1506 1766                              i2l1514 1774  
                            i2l1516 1782                              i2l1508 176A  
                            i2l1490 170A                              i2l1492 170C  
                            i2l1484 16DA                              i2l1494 171C  
                            i2l1486 16EA                              i2l1496 1720  
                            i2l1488 16F8                              i2l1498 1734  
                            _OSCFRQ 0039DF                    __end_of_delay_ms 196A  
                __size_of_Wait_CREG 01A4                              clear_0 18FA  
                            _strchr 17E8                              _strlen 196A  
                            _strstr 1612                        __pdataCOMRAM 002A  
                      __mediumconst 0000                              tblptrh 003FF7  
                            tblptrl 003FF6                              tblptru 003FF8  
                         ??_strncmp 0007                          __accesstop 0060  
           __end_of__initialization 1914                       ___rparam_used 000001  
                    __pcstackCOMRAM 0001           __size_of_InterruptManager 00AC  
                    _PIN_Initialize 1A38                    ??_call_phone_num 001E  
      __size_of_UART1_Send_Greeting 004E                          __pbssBANK0 0060  
                 __end_of_Wait_CREG 1420             ??_UART1_Send_AT_Command 001B  
                           IVTBASEH 003FD6                             IVTBASEL 003FD5  
                           IVTBASEU 003FD7              __end_of_PIN_Initialize 1A54  
               UART1_Send_Command@s 0002                             ?_strchr 0001  
                           ?_strlen 0001                             ?_strstr 000C  
                           _CLR_Buf 19E4                             _U1RXPPS 003AE5  
                           _OSCCON1 0039D9                             _OSCCON3 0039DB  
                         ?_delay_ms 0001                             _OSCTUNE 0039DE  
                           i2u92_40 16EA                             i2u92_41 16E6  
                           i2u93_40 16F8                             i2u93_41 16F4  
                           i2u94_40 171C                             i2u94_41 1718  
                           i2u95_40 1734                             i2u95_41 1730  
                           i2u96_40 1742                             i2u96_41 173E  
                           i2u97_40 1766                             i2u97_41 1762  
                           i2u98_40 1782                             i2u98_41 177E  
                           __Hparam 0000                             __Lparam 0000  
                      __psmallconst 1000                             __pcinit 18D8  
                           __ramtop 1000                             __ptext0 10AC  
                           __ptext1 1420                             __ptext2 127C  
                           __ptext3 1786                             __ptext4 1922  
                           __ptext5 183C                             __ptext6 19A8  
                           __ptext7 1612                             __ptext8 1524  
                           __ptext9 196A                     ?_PIN_Initialize 0001  
                   __size_of_strchr 0054                     __size_of_strlen 003E  
                  ??_UART1_SendData 0001                     __size_of_strstr 00C8  
             _OSCILLATOR_Initialize 1A6E            __size_of_UART_Initialize 0028  
                        ??_delay_ms 0003                             main@ret 0024  
                           _strncmp 1524                          delay_ms@ms 0001  
              end_of_initialization 1914                             postinc0 003FEE  
                           postinc2 003FDE          __end_of_UART1_Send_Command 188A  
                           strchr@c 0003                             strchr@s 0001  
                           strlen@a 0003                             strlen@s 0001  
                           strstr@h 000C                             strstr@n 000E  
                         _PORTCbits 003FCC                    _InterruptManager 16DA  
               _UART1_Send_Greeting 188A                       __pidataCOMRAM 1A86  
            ?_OSCILLATOR_Initialize 0001                           _First_Int 0029  
                    __end_of_strchr 183C                      __end_of_strlen 19A8  
                    __end_of_strstr 16DA                 start_initialization 18D8  
              ?_UART1_Send_Greeting 0002                          ivt0x8_base 0008  
                 ??_UART_Initialize 0001                           _Uart1_Buf 0060  
                         _Wait_CREG 127C      __size_of_UART1_Send_AT_Command 0062  
     __end_of_UART1_Send_AT_Command 17E8                            ??_strchr 0005  
                          ??_strlen 0003                            ??_strstr 0010  
                          ?_CLR_Buf 0001                            CLR_Buf@k 0001  
                       __pbssCOMRAM 0026                Wait_CREG@query_times 0005  
             ??_UART1_Send_Greeting 0004                   __size_of_delay_ms 0048  
                        ?_Wait_CREG 0001                    ??_PIN_Initialize 0001  
                       __smallconst 1000                            ?_strncmp 0001  
           __size_of_call_phone_num 0104                            _LATBbits 003FBB  
                         delay_ms@i 0004            __end_of_InterruptManager 1786  
                          _PIE3bits 003993                           _phone_num 002A  
                          _PIR3bits 0039A3                UART1_Send_Greeting@s 0002  
                  __size_of_CLR_Buf 002C                  _UART1_Send_Command 183C  
                       _INTCON0bits 003FD2                 ?_UART1_Send_Command 0002  
                       ??_Wait_CREG 0004                            __Hrparam 0000  
                          __Lrparam 0000                        __Lsmallconst 1000  
           ??_OSCILLATOR_Initialize 0001                ??_UART1_Send_Command 0004  
                   _UART_Initialize 1A10                            _delay_ms 1922  
                          __pivt0x8 0008                            __ptext10 17E8  
                          __ptext11 1A10                            __ptext12 188A  
                          __ptext13 1A54                            __ptext14 19E4  
                          __ptext15 1A38                            __ptext16 1A6E  
                          __ptext17 16DA  UART1_Send_AT_Command@interval_time 0019  
                        _U1FIFObits 003DF7                    __size_of_strncmp 00EE  
                     __size_of_Find 003C             __size_of_UART1_SendData 001A  
                     __size_of_main 01D0                            intlevel2 0000  
                    _call_phone_num 1420                           strncmp@_l 0001  
                         strncmp@_r 0003                 call_phone_num@phone 001C  
             _UART1_Send_AT_Command 1786             __end_of_UART_Initialize 1A38  
       __end_of_UART1_Send_Greeting 18D8                            strncmp@l 0008  
                          strncmp@n 0005                            strncmp@r 000A  
                          strstr@nl 0010              __end_of_call_phone_num 1524  
                 call_phone_num@ret 001F                   ?_InterruptManager 0001  
